
AVR_STUDIO.elf:     file format elf32-avr

Sections:
Idx Name          Size      VMA       LMA       File off  Algn
  0 .text         000036ee  00000000  00000000  00000094  2**1
                  CONTENTS, ALLOC, LOAD, READONLY, CODE
  1 .data         00000184  00800060  000036ee  00003782  2**0
                  CONTENTS, ALLOC, LOAD, DATA
  2 .bss          0000025d  008001e4  008001e4  00003906  2**0
                  ALLOC
  3 .debug_aranges 00000180  00000000  00000000  00003906  2**0
                  CONTENTS, READONLY, DEBUGGING
  4 .debug_pubnames 00000530  00000000  00000000  00003a86  2**0
                  CONTENTS, READONLY, DEBUGGING
  5 .debug_info   00002da1  00000000  00000000  00003fb6  2**0
                  CONTENTS, READONLY, DEBUGGING
  6 .debug_abbrev 00000d4f  00000000  00000000  00006d57  2**0
                  CONTENTS, READONLY, DEBUGGING
  7 .debug_line   000020c2  00000000  00000000  00007aa6  2**0
                  CONTENTS, READONLY, DEBUGGING
  8 .debug_frame  00000470  00000000  00000000  00009b68  2**2
                  CONTENTS, READONLY, DEBUGGING
  9 .debug_str    00000794  00000000  00000000  00009fd8  2**0
                  CONTENTS, READONLY, DEBUGGING
 10 .debug_loc    00002732  00000000  00000000  0000a76c  2**0
                  CONTENTS, READONLY, DEBUGGING
 11 .debug_ranges 00000140  00000000  00000000  0000ce9e  2**0
                  CONTENTS, READONLY, DEBUGGING

Disassembly of section .text:

00000000 <__vectors>:
       0:	0c 94 30 00 	jmp	0x60	; 0x60 <__ctors_end>
       4:	0c 94 4d 00 	jmp	0x9a	; 0x9a <__bad_interrupt>
       8:	0c 94 4d 00 	jmp	0x9a	; 0x9a <__bad_interrupt>
       c:	0c 94 77 01 	jmp	0x2ee	; 0x2ee <__vector_3>
      10:	0c 94 4d 00 	jmp	0x9a	; 0x9a <__bad_interrupt>
      14:	0c 94 4d 00 	jmp	0x9a	; 0x9a <__bad_interrupt>
      18:	0c 94 4d 00 	jmp	0x9a	; 0x9a <__bad_interrupt>
      1c:	0c 94 4d 00 	jmp	0x9a	; 0x9a <__bad_interrupt>
      20:	0c 94 4d 00 	jmp	0x9a	; 0x9a <__bad_interrupt>
      24:	0c 94 4d 00 	jmp	0x9a	; 0x9a <__bad_interrupt>
      28:	0c 94 4d 00 	jmp	0x9a	; 0x9a <__bad_interrupt>
      2c:	0c 94 4d 00 	jmp	0x9a	; 0x9a <__bad_interrupt>
      30:	0c 94 4d 00 	jmp	0x9a	; 0x9a <__bad_interrupt>
      34:	0c 94 4d 00 	jmp	0x9a	; 0x9a <__bad_interrupt>
      38:	0c 94 4d 00 	jmp	0x9a	; 0x9a <__bad_interrupt>
      3c:	0c 94 4d 00 	jmp	0x9a	; 0x9a <__bad_interrupt>
      40:	0c 94 4d 00 	jmp	0x9a	; 0x9a <__bad_interrupt>
      44:	0c 94 4d 00 	jmp	0x9a	; 0x9a <__bad_interrupt>
      48:	0c 94 4d 00 	jmp	0x9a	; 0x9a <__bad_interrupt>
      4c:	0c 94 2d 01 	jmp	0x25a	; 0x25a <__vector_19>
      50:	0c 94 4d 00 	jmp	0x9a	; 0x9a <__bad_interrupt>

00000054 <ds1307_daysinmonth>:
      54:	1f 1c 1f 1e 1f 1e 1f 1f 1e 1f 1e 1f                 ............

00000060 <__ctors_end>:
      60:	11 24       	eor	r1, r1
      62:	1f be       	out	0x3f, r1	; 63
      64:	cf e5       	ldi	r28, 0x5F	; 95
      66:	d4 e0       	ldi	r29, 0x04	; 4
      68:	de bf       	out	0x3e, r29	; 62
      6a:	cd bf       	out	0x3d, r28	; 61

0000006c <__do_copy_data>:
      6c:	11 e0       	ldi	r17, 0x01	; 1
      6e:	a0 e6       	ldi	r26, 0x60	; 96
      70:	b0 e0       	ldi	r27, 0x00	; 0
      72:	ee ee       	ldi	r30, 0xEE	; 238
      74:	f6 e3       	ldi	r31, 0x36	; 54
      76:	02 c0       	rjmp	.+4      	; 0x7c <.do_copy_data_start>

00000078 <.do_copy_data_loop>:
      78:	05 90       	lpm	r0, Z+
      7a:	0d 92       	st	X+, r0

0000007c <.do_copy_data_start>:
      7c:	a4 3e       	cpi	r26, 0xE4	; 228
      7e:	b1 07       	cpc	r27, r17
      80:	d9 f7       	brne	.-10     	; 0x78 <.do_copy_data_loop>

00000082 <__do_clear_bss>:
      82:	14 e0       	ldi	r17, 0x04	; 4
      84:	a4 ee       	ldi	r26, 0xE4	; 228
      86:	b1 e0       	ldi	r27, 0x01	; 1
      88:	01 c0       	rjmp	.+2      	; 0x8c <.do_clear_bss_start>

0000008a <.do_clear_bss_loop>:
      8a:	1d 92       	st	X+, r1

0000008c <.do_clear_bss_start>:
      8c:	a1 34       	cpi	r26, 0x41	; 65
      8e:	b1 07       	cpc	r27, r17
      90:	e1 f7       	brne	.-8      	; 0x8a <.do_clear_bss_loop>
      92:	0e 94 2b 02 	call	0x456	; 0x456 <main>
      96:	0c 94 75 1b 	jmp	0x36ea	; 0x36ea <_exit>

0000009a <__bad_interrupt>:
      9a:	0c 94 00 00 	jmp	0	; 0x0 <__vectors>

0000009e <sumsquare>:

return 0;
}

void sumsquare(unsigned int a, unsigned int b)
{
      9e:	af 92       	push	r10
      a0:	bf 92       	push	r11
      a2:	cf 92       	push	r12
      a4:	df 92       	push	r13
      a6:	ef 92       	push	r14
      a8:	ff 92       	push	r15
      aa:	0f 93       	push	r16
      ac:	1f 93       	push	r17
unsigned long tmp = 0;
        /*0.680 - Коэффициент измерения, переводим выхлоп АЦП в вольты*/
        tmp = (((unsigned long)(a - b))*680)/1000;
      ae:	86 1b       	sub	r24, r22
      b0:	97 0b       	sbc	r25, r23
      b2:	a0 e0       	ldi	r26, 0x00	; 0
      b4:	b0 e0       	ldi	r27, 0x00	; 0
      b6:	bc 01       	movw	r22, r24
      b8:	cd 01       	movw	r24, r26
      ba:	28 ea       	ldi	r18, 0xA8	; 168
      bc:	32 e0       	ldi	r19, 0x02	; 2
      be:	40 e0       	ldi	r20, 0x00	; 0
      c0:	50 e0       	ldi	r21, 0x00	; 0
      c2:	0e 94 29 18 	call	0x3052	; 0x3052 <__mulsi3>
      c6:	28 ee       	ldi	r18, 0xE8	; 232
      c8:	33 e0       	ldi	r19, 0x03	; 3
      ca:	40 e0       	ldi	r20, 0x00	; 0
      cc:	50 e0       	ldi	r21, 0x00	; 0
      ce:	0e 94 67 18 	call	0x30ce	; 0x30ce <__udivmodsi4>
        tmp = ( (unsigned long)tmp )*( (unsigned long)tmp );
        Asum = ((unsigned long long)Asum) + tmp;
      d2:	b9 01       	movw	r22, r18
      d4:	ca 01       	movw	r24, r20
      d6:	0e 94 29 18 	call	0x3052	; 0x3052 <__mulsi3>
      da:	8b 01       	movw	r16, r22
      dc:	9c 01       	movw	r18, r24
      de:	80 91 f2 01 	lds	r24, 0x01F2
      e2:	f0 91 f3 01 	lds	r31, 0x01F3
      e6:	a0 91 f4 01 	lds	r26, 0x01F4
      ea:	b0 91 f5 01 	lds	r27, 0x01F5
      ee:	f0 90 f6 01 	lds	r15, 0x01F6
      f2:	d0 90 f7 01 	lds	r13, 0x01F7
      f6:	c0 90 f8 01 	lds	r12, 0x01F8
      fa:	a0 90 f9 01 	lds	r10, 0x01F9
      fe:	b8 2e       	mov	r11, r24
     100:	b0 0e       	add	r11, r16
     102:	91 e0       	ldi	r25, 0x01	; 1
     104:	b8 16       	cp	r11, r24
     106:	08 f0       	brcs	.+2      	; 0x10a <sumsquare+0x6c>
     108:	90 e0       	ldi	r25, 0x00	; 0
     10a:	8f 2f       	mov	r24, r31
     10c:	81 0f       	add	r24, r17
     10e:	e1 e0       	ldi	r30, 0x01	; 1
     110:	8f 17       	cp	r24, r31
     112:	08 f0       	brcs	.+2      	; 0x116 <sumsquare+0x78>
     114:	e0 e0       	ldi	r30, 0x00	; 0
     116:	e9 2e       	mov	r14, r25
     118:	e8 0e       	add	r14, r24
     11a:	91 e0       	ldi	r25, 0x01	; 1
     11c:	e8 16       	cp	r14, r24
     11e:	08 f0       	brcs	.+2      	; 0x122 <sumsquare+0x84>
     120:	90 e0       	ldi	r25, 0x00	; 0
     122:	e9 2b       	or	r30, r25
     124:	8a 2f       	mov	r24, r26
     126:	82 0f       	add	r24, r18
     128:	f1 e0       	ldi	r31, 0x01	; 1
     12a:	8a 17       	cp	r24, r26
     12c:	08 f0       	brcs	.+2      	; 0x130 <sumsquare+0x92>
     12e:	f0 e0       	ldi	r31, 0x00	; 0
     130:	e8 0f       	add	r30, r24
     132:	91 e0       	ldi	r25, 0x01	; 1
     134:	e8 17       	cp	r30, r24
     136:	08 f0       	brcs	.+2      	; 0x13a <sumsquare+0x9c>
     138:	90 e0       	ldi	r25, 0x00	; 0
     13a:	f9 2b       	or	r31, r25
     13c:	6b 2f       	mov	r22, r27
     13e:	63 0f       	add	r22, r19
     140:	91 e0       	ldi	r25, 0x01	; 1
     142:	6b 17       	cp	r22, r27
     144:	08 f0       	brcs	.+2      	; 0x148 <sumsquare+0xaa>
     146:	90 e0       	ldi	r25, 0x00	; 0
     148:	4f 2f       	mov	r20, r31
     14a:	46 0f       	add	r20, r22
     14c:	81 e0       	ldi	r24, 0x01	; 1
     14e:	46 17       	cp	r20, r22
     150:	08 f0       	brcs	.+2      	; 0x154 <sumsquare+0xb6>
     152:	80 e0       	ldi	r24, 0x00	; 0
     154:	98 2b       	or	r25, r24
     156:	9f 0d       	add	r25, r15
     158:	81 e0       	ldi	r24, 0x01	; 1
     15a:	9f 15       	cp	r25, r15
     15c:	08 f0       	brcs	.+2      	; 0x160 <sumsquare+0xc2>
     15e:	80 e0       	ldi	r24, 0x00	; 0
     160:	38 2f       	mov	r19, r24
     162:	3d 0d       	add	r19, r13
     164:	81 e0       	ldi	r24, 0x01	; 1
     166:	3d 15       	cp	r19, r13
     168:	08 f0       	brcs	.+2      	; 0x16c <sumsquare+0xce>
     16a:	80 e0       	ldi	r24, 0x00	; 0
     16c:	28 2f       	mov	r18, r24
     16e:	2c 0d       	add	r18, r12
     170:	81 e0       	ldi	r24, 0x01	; 1
     172:	2c 15       	cp	r18, r12
     174:	08 f0       	brcs	.+2      	; 0x178 <sumsquare+0xda>
     176:	80 e0       	ldi	r24, 0x00	; 0
     178:	8a 0d       	add	r24, r10
     17a:	b0 92 f2 01 	sts	0x01F2, r11
     17e:	e0 92 f3 01 	sts	0x01F3, r14
     182:	e0 93 f4 01 	sts	0x01F4, r30
     186:	40 93 f5 01 	sts	0x01F5, r20
     18a:	90 93 f6 01 	sts	0x01F6, r25
     18e:	30 93 f7 01 	sts	0x01F7, r19
     192:	20 93 f8 01 	sts	0x01F8, r18
     196:	80 93 f9 01 	sts	0x01F9, r24
        ++N;
     19a:	80 91 fa 01 	lds	r24, 0x01FA
     19e:	8f 5f       	subi	r24, 0xFF	; 255
     1a0:	80 93 fa 01 	sts	0x01FA, r24
}
     1a4:	1f 91       	pop	r17
     1a6:	0f 91       	pop	r16
     1a8:	ff 90       	pop	r15
     1aa:	ef 90       	pop	r14
     1ac:	df 90       	pop	r13
     1ae:	cf 90       	pop	r12
     1b0:	bf 90       	pop	r11
     1b2:	af 90       	pop	r10
     1b4:	08 95       	ret

000001b6 <isqrt32>:

unsigned int isqrt32(unsigned long from)
/*Нахождения корня числа за ~ 300 тактов*/
{
     1b6:	af 92       	push	r10
     1b8:	bf 92       	push	r11
     1ba:	cf 92       	push	r12
     1bc:	df 92       	push	r13
     1be:	ef 92       	push	r14
     1c0:	ff 92       	push	r15
     1c2:	0f 93       	push	r16
     1c4:	1f 93       	push	r17
     1c6:	7b 01       	movw	r14, r22
     1c8:	8c 01       	movw	r16, r24
     1ca:	80 e0       	ldi	r24, 0x00	; 0
     1cc:	90 e0       	ldi	r25, 0x00	; 0
     1ce:	a0 e0       	ldi	r26, 0x00	; 0
     1d0:	b0 e4       	ldi	r27, 0x40	; 64
     1d2:	20 e0       	ldi	r18, 0x00	; 0
     1d4:	30 e0       	ldi	r19, 0x00	; 0
     1d6:	40 e0       	ldi	r20, 0x00	; 0
     1d8:	50 e0       	ldi	r21, 0x00	; 0
     1da:	60 e0       	ldi	r22, 0x00	; 0
     1dc:	70 e0       	ldi	r23, 0x00	; 0
	unsigned long mask = 0x40000000;
	unsigned long sqr = 0, temp;
    do
	{
         temp = sqr | mask;
     1de:	59 01       	movw	r10, r18
     1e0:	6a 01       	movw	r12, r20
     1e2:	a8 2a       	or	r10, r24
     1e4:	b9 2a       	or	r11, r25
     1e6:	ca 2a       	or	r12, r26
     1e8:	db 2a       	or	r13, r27
         sqr >>= 1;
     1ea:	56 95       	lsr	r21
     1ec:	47 95       	ror	r20
     1ee:	37 95       	ror	r19
     1f0:	27 95       	ror	r18
         if( temp <= from )
     1f2:	ea 14       	cp	r14, r10
     1f4:	fb 04       	cpc	r15, r11
     1f6:	0c 05       	cpc	r16, r12
     1f8:	1d 05       	cpc	r17, r13
     1fa:	40 f0       	brcs	.+16     	; 0x20c <isqrt32+0x56>
		 {
             sqr |= mask;
     1fc:	28 2b       	or	r18, r24
     1fe:	39 2b       	or	r19, r25
     200:	4a 2b       	or	r20, r26
     202:	5b 2b       	or	r21, r27
             from -= temp;
     204:	ea 18       	sub	r14, r10
     206:	fb 08       	sbc	r15, r11
     208:	0c 09       	sbc	r16, r12
     20a:	1d 09       	sbc	r17, r13
         }
     } while( mask >>= 2 );
     20c:	e2 e0       	ldi	r30, 0x02	; 2
     20e:	b6 95       	lsr	r27
     210:	a7 95       	ror	r26
     212:	97 95       	ror	r25
     214:	87 95       	ror	r24
     216:	ea 95       	dec	r30
     218:	d1 f7       	brne	.-12     	; 0x20e <isqrt32+0x58>
     21a:	6f 5f       	subi	r22, 0xFF	; 255
     21c:	7f 4f       	sbci	r23, 0xFF	; 255
     21e:	60 31       	cpi	r22, 0x10	; 16
     220:	71 05       	cpc	r23, r1
     222:	e9 f6       	brne	.-70     	; 0x1de <isqrt32+0x28>
     if( sqr < from && sqr < 0xFFFF) ++sqr;
     224:	2e 15       	cp	r18, r14
     226:	3f 05       	cpc	r19, r15
     228:	40 07       	cpc	r20, r16
     22a:	51 07       	cpc	r21, r17
     22c:	60 f4       	brcc	.+24     	; 0x246 <isqrt32+0x90>
     22e:	2f 3f       	cpi	r18, 0xFF	; 255
     230:	8f ef       	ldi	r24, 0xFF	; 255
     232:	38 07       	cpc	r19, r24
     234:	80 e0       	ldi	r24, 0x00	; 0
     236:	48 07       	cpc	r20, r24
     238:	80 e0       	ldi	r24, 0x00	; 0
     23a:	58 07       	cpc	r21, r24
     23c:	20 f4       	brcc	.+8      	; 0x246 <isqrt32+0x90>
     23e:	2f 5f       	subi	r18, 0xFF	; 255
     240:	3f 4f       	sbci	r19, 0xFF	; 255
     242:	4f 4f       	sbci	r20, 0xFF	; 255
     244:	5f 4f       	sbci	r21, 0xFF	; 255
return (unsigned int)sqr;
}
     246:	c9 01       	movw	r24, r18
     248:	1f 91       	pop	r17
     24a:	0f 91       	pop	r16
     24c:	ff 90       	pop	r15
     24e:	ef 90       	pop	r14
     250:	df 90       	pop	r13
     252:	cf 90       	pop	r12
     254:	bf 90       	pop	r11
     256:	af 90       	pop	r10
     258:	08 95       	ret

0000025a <__vector_19>:
return;
}

ISR(TIMER0_COMP_vect)
/*Прерывание для кнопок*/
{
     25a:	1f 92       	push	r1
     25c:	0f 92       	push	r0
     25e:	0f b6       	in	r0, 0x3f	; 63
     260:	0f 92       	push	r0
     262:	11 24       	eor	r1, r1
     264:	2f 93       	push	r18
     266:	3f 93       	push	r19
     268:	4f 93       	push	r20
     26a:	5f 93       	push	r21
     26c:	6f 93       	push	r22
     26e:	7f 93       	push	r23
     270:	8f 93       	push	r24
     272:	9f 93       	push	r25
     274:	af 93       	push	r26
     276:	bf 93       	push	r27
     278:	ef 93       	push	r30
     27a:	ff 93       	push	r31
    /*
       Menu button, вход в меню и возврат в меню, 1 кнопка(PA0)
    */
	if(!(PIN & (1<<0)))
     27c:	c8 99       	sbic	0x19, 0	; 25
     27e:	08 c0       	rjmp	.+16     	; 0x290 <__vector_19+0x36>
    milliseconds can be achieved.
 */
void
_delay_loop_2(uint16_t __count)
{
	__asm__ volatile (
     280:	80 e4       	ldi	r24, 0x40	; 64
     282:	9c e9       	ldi	r25, 0x9C	; 156
     284:	01 97       	sbiw	r24, 0x01	; 1
     286:	f1 f7       	brne	.-4      	; 0x284 <__vector_19+0x2a>
	{
		_delay_ms(10);
		while(!(PIN & (1<<0)));
     288:	c8 9b       	sbis	0x19, 0	; 25
     28a:	fe cf       	rjmp	.-4      	; 0x288 <__vector_19+0x2e>

		btt_menu();
     28c:	0e 94 02 05 	call	0xa04	; 0xa04 <btt_menu>

    /*
      Set button, выполняет пункт меню, сдвиг курсора на следующую
      позицию при изменении времени и даты, 2 кнопка(PA1)
    */
	if(!(PIN & (1<<1)))
     290:	c9 99       	sbic	0x19, 1	; 25
     292:	08 c0       	rjmp	.+16     	; 0x2a4 <__vector_19+0x4a>
     294:	80 e4       	ldi	r24, 0x40	; 64
     296:	9c e9       	ldi	r25, 0x9C	; 156
     298:	01 97       	sbiw	r24, 0x01	; 1
     29a:	f1 f7       	brne	.-4      	; 0x298 <__vector_19+0x3e>
	{
		_delay_ms(10);//Задержка для ликвидации дребезгов
		while(!(PIN & (1<<1)));//если кнопка нажата сейчас - asm("nop")
     29c:	c9 9b       	sbis	0x19, 1	; 25
     29e:	fe cf       	rjmp	.-4      	; 0x29c <__vector_19+0x42>

		btt_set();
     2a0:	0e 94 94 04 	call	0x928	; 0x928 <btt_set>
    /*
       Up button, стрелочка вверх, увеличивает счетчик на 1
       в меню и в режиме изменения времени и даты
       3 кнопка(PA2)
    */
	if(!(PIN & (1<<2)))
     2a4:	ca 99       	sbic	0x19, 2	; 25
     2a6:	08 c0       	rjmp	.+16     	; 0x2b8 <__vector_19+0x5e>
     2a8:	80 e4       	ldi	r24, 0x40	; 64
     2aa:	9c e9       	ldi	r25, 0x9C	; 156
     2ac:	01 97       	sbiw	r24, 0x01	; 1
     2ae:	f1 f7       	brne	.-4      	; 0x2ac <__vector_19+0x52>
	{
		_delay_ms(10);
		while(!(PIN & (1<<2)));
     2b0:	ca 9b       	sbis	0x19, 2	; 25
     2b2:	fe cf       	rjmp	.-4      	; 0x2b0 <__vector_19+0x56>

		btt_up();
     2b4:	0e 94 17 04 	call	0x82e	; 0x82e <btt_up>
    /*
       Down button, стрелочка вниз, уменьшает счетчик на 1
       в меню и в режиме изменения времени и даты
       4 кнопка(PA3)
    */
    if(!(PIN & (1<<3)))
     2b8:	cb 99       	sbic	0x19, 3	; 25
     2ba:	08 c0       	rjmp	.+16     	; 0x2cc <__vector_19+0x72>
     2bc:	80 e4       	ldi	r24, 0x40	; 64
     2be:	9c e9       	ldi	r25, 0x9C	; 156
     2c0:	01 97       	sbiw	r24, 0x01	; 1
     2c2:	f1 f7       	brne	.-4      	; 0x2c0 <__vector_19+0x66>
    {
        _delay_ms(10);
        while(!(PIN & (1<<3)));
     2c4:	cb 9b       	sbis	0x19, 3	; 25
     2c6:	fe cf       	rjmp	.-4      	; 0x2c4 <__vector_19+0x6a>

        btt_down();
     2c8:	0e 94 9c 03 	call	0x738	; 0x738 <btt_down>
    }
return;	
}
     2cc:	ff 91       	pop	r31
     2ce:	ef 91       	pop	r30
     2d0:	bf 91       	pop	r27
     2d2:	af 91       	pop	r26
     2d4:	9f 91       	pop	r25
     2d6:	8f 91       	pop	r24
     2d8:	7f 91       	pop	r23
     2da:	6f 91       	pop	r22
     2dc:	5f 91       	pop	r21
     2de:	4f 91       	pop	r20
     2e0:	3f 91       	pop	r19
     2e2:	2f 91       	pop	r18
     2e4:	0f 90       	pop	r0
     2e6:	0f be       	out	0x3f, r0	; 63
     2e8:	0f 90       	pop	r0
     2ea:	1f 90       	pop	r1
     2ec:	18 95       	reti

000002ee <__vector_3>:
return (unsigned int)sqr;
}

ISR(TIMER2_COMP_vect)
/*Прерывание для измерения*/
{
     2ee:	1f 92       	push	r1
     2f0:	0f 92       	push	r0
     2f2:	0f b6       	in	r0, 0x3f	; 63
     2f4:	0f 92       	push	r0
     2f6:	11 24       	eor	r1, r1
     2f8:	af 92       	push	r10
     2fa:	bf 92       	push	r11
     2fc:	cf 92       	push	r12
     2fe:	df 92       	push	r13
     300:	ef 92       	push	r14
     302:	ff 92       	push	r15
     304:	0f 93       	push	r16
     306:	1f 93       	push	r17
     308:	2f 93       	push	r18
     30a:	3f 93       	push	r19
     30c:	4f 93       	push	r20
     30e:	5f 93       	push	r21
     310:	6f 93       	push	r22
     312:	7f 93       	push	r23
     314:	8f 93       	push	r24
     316:	9f 93       	push	r25
     318:	af 93       	push	r26
     31a:	bf 93       	push	r27
     31c:	ef 93       	push	r30
     31e:	ff 93       	push	r31
    ACP = start_base_adc();
     320:	0e 94 9b 02 	call	0x536	; 0x536 <start_base_adc>
     324:	90 93 ef 01 	sts	0x01EF, r25
     328:	80 93 ee 01 	sts	0x01EE, r24
        if(flag == 0)
     32c:	80 91 ed 01 	lds	r24, 0x01ED
     330:	88 23       	and	r24, r24
     332:	49 f4       	brne	.+18     	; 0x346 <__vector_3+0x58>
        {
           ACP_half = start_half_adc();
     334:	0e 94 a5 02 	call	0x54a	; 0x54a <start_half_adc>
     338:	90 93 f1 01 	sts	0x01F1, r25
     33c:	80 93 f0 01 	sts	0x01F0, r24
           flag = 1;
     340:	81 e0       	ldi	r24, 0x01	; 1
     342:	80 93 ed 01 	sts	0x01ED, r24
        }
    if(ACP > (ACP_half + 10))
     346:	20 91 ee 01 	lds	r18, 0x01EE
     34a:	30 91 ef 01 	lds	r19, 0x01EF
     34e:	60 91 f0 01 	lds	r22, 0x01F0
     352:	70 91 f1 01 	lds	r23, 0x01F1
     356:	cb 01       	movw	r24, r22
     358:	0a 96       	adiw	r24, 0x0a	; 10
     35a:	82 17       	cp	r24, r18
     35c:	93 07       	cpc	r25, r19
     35e:	18 f4       	brcc	.+6      	; 0x366 <__vector_3+0x78>
    {
        sumsquare(ACP,ACP_half);
     360:	c9 01       	movw	r24, r18
     362:	0e 94 4f 00 	call	0x9e	; 0x9e <sumsquare>
    }
    if(ACP < (ACP_half - 10))
     366:	60 91 ee 01 	lds	r22, 0x01EE
     36a:	70 91 ef 01 	lds	r23, 0x01EF
     36e:	20 91 f0 01 	lds	r18, 0x01F0
     372:	30 91 f1 01 	lds	r19, 0x01F1
     376:	c9 01       	movw	r24, r18
     378:	0a 97       	sbiw	r24, 0x0a	; 10
     37a:	68 17       	cp	r22, r24
     37c:	79 07       	cpc	r23, r25
     37e:	18 f4       	brcc	.+6      	; 0x386 <__vector_3+0x98>
    {
        sumsquare(ACP_half,ACP);
     380:	c9 01       	movw	r24, r18
     382:	0e 94 4f 00 	call	0x9e	; 0x9e <sumsquare>
    }
	if((ACP < (ACP_half + 10)) && (ACP > (ACP_half - 10)))
     386:	40 91 ee 01 	lds	r20, 0x01EE
     38a:	50 91 ef 01 	lds	r21, 0x01EF
     38e:	20 91 f0 01 	lds	r18, 0x01F0
     392:	30 91 f1 01 	lds	r19, 0x01F1
     396:	c9 01       	movw	r24, r18
     398:	0a 96       	adiw	r24, 0x0a	; 10
     39a:	48 17       	cp	r20, r24
     39c:	59 07       	cpc	r21, r25
     39e:	08 f0       	brcs	.+2      	; 0x3a2 <__vector_3+0xb4>
     3a0:	41 c0       	rjmp	.+130    	; 0x424 <__vector_3+0x136>
     3a2:	2a 50       	subi	r18, 0x0A	; 10
     3a4:	30 40       	sbci	r19, 0x00	; 0
     3a6:	24 17       	cp	r18, r20
     3a8:	35 07       	cpc	r19, r21
     3aa:	e0 f5       	brcc	.+120    	; 0x424 <__vector_3+0x136>
    /*+ или - 10 делений, это зона нечувствительности +-5В для определения
      перехода через ноль*/
	{
        if( (N > 40) && (N < 50) )
     3ac:	90 91 fa 01 	lds	r25, 0x01FA
     3b0:	89 2f       	mov	r24, r25
     3b2:	89 52       	subi	r24, 0x29	; 41
     3b4:	89 30       	cpi	r24, 0x09	; 9
     3b6:	10 f5       	brcc	.+68     	; 0x3fc <__vector_3+0x10e>
        /*Среднее количество замеров которое должно пройти, для положительного
          значения напряжения, если меньше или больше, значит мы не всю полуволну
          меряем или больше чем полуволна*/
        {
            rezult_measuring = isqrt32( Asum / N );
     3b8:	a9 2e       	mov	r10, r25
     3ba:	20 91 f2 01 	lds	r18, 0x01F2
     3be:	30 91 f3 01 	lds	r19, 0x01F3
     3c2:	40 91 f4 01 	lds	r20, 0x01F4
     3c6:	50 91 f5 01 	lds	r21, 0x01F5
     3ca:	60 91 f6 01 	lds	r22, 0x01F6
     3ce:	70 91 f7 01 	lds	r23, 0x01F7
     3d2:	80 91 f8 01 	lds	r24, 0x01F8
     3d6:	90 91 f9 01 	lds	r25, 0x01F9
     3da:	bb 24       	eor	r11, r11
     3dc:	cc 24       	eor	r12, r12
     3de:	dd 24       	eor	r13, r13
     3e0:	ee 24       	eor	r14, r14
     3e2:	ff 24       	eor	r15, r15
     3e4:	00 e0       	ldi	r16, 0x00	; 0
     3e6:	10 e0       	ldi	r17, 0x00	; 0
     3e8:	0e 94 b4 11 	call	0x2368	; 0x2368 <__udivdi3>
     3ec:	b9 01       	movw	r22, r18
     3ee:	ca 01       	movw	r24, r20
     3f0:	0e 94 db 00 	call	0x1b6	; 0x1b6 <isqrt32>
     3f4:	90 93 fc 01 	sts	0x01FC, r25
     3f8:	80 93 fb 01 	sts	0x01FB, r24
            N = 0;
            Asum = 0;
        }
        else
		{
            flag = 0;
     3fc:	10 92 ed 01 	sts	0x01ED, r1
            N = 0;
     400:	10 92 fa 01 	sts	0x01FA, r1
            Asum = 0;
     404:	10 92 f2 01 	sts	0x01F2, r1
     408:	10 92 f3 01 	sts	0x01F3, r1
     40c:	10 92 f4 01 	sts	0x01F4, r1
     410:	10 92 f5 01 	sts	0x01F5, r1
     414:	10 92 f6 01 	sts	0x01F6, r1
     418:	10 92 f7 01 	sts	0x01F7, r1
     41c:	10 92 f8 01 	sts	0x01F8, r1
     420:	10 92 f9 01 	sts	0x01F9, r1
		}
	}
return;
}
     424:	ff 91       	pop	r31
     426:	ef 91       	pop	r30
     428:	bf 91       	pop	r27
     42a:	af 91       	pop	r26
     42c:	9f 91       	pop	r25
     42e:	8f 91       	pop	r24
     430:	7f 91       	pop	r23
     432:	6f 91       	pop	r22
     434:	5f 91       	pop	r21
     436:	4f 91       	pop	r20
     438:	3f 91       	pop	r19
     43a:	2f 91       	pop	r18
     43c:	1f 91       	pop	r17
     43e:	0f 91       	pop	r16
     440:	ff 90       	pop	r15
     442:	ef 90       	pop	r14
     444:	df 90       	pop	r13
     446:	cf 90       	pop	r12
     448:	bf 90       	pop	r11
     44a:	af 90       	pop	r10
     44c:	0f 90       	pop	r0
     44e:	0f be       	out	0x3f, r0	; 63
     450:	0f 90       	pop	r0
     452:	1f 90       	pop	r1
     454:	18 95       	reti

00000456 <main>:
WORD br; // Счетчик количества байт которые удалось записать
//BYTE test[10] = {'H', 'E', 'L', 'L', 'O', ' ', 'o', 'k', 0x0D, 0x0A};
//0x0D = \r  0x0A = \n

int main(void)
{
     456:	ef 92       	push	r14
     458:	0f 93       	push	r16
lcd_init();
     45a:	0e 94 bc 08 	call	0x1178	; 0x1178 <lcd_init>
ds1307_init();
     45e:	0e 94 4b 08 	call	0x1096	; 0x1096 <ds1307_init>
adc_init();
     462:	0e 94 97 02 	call	0x52e	; 0x52e <adc_init>
timer_init();
     466:	0e 94 3e 11 	call	0x227c	; 0x227c <timer_init>
asm("sei");
     46a:	78 94       	sei
	lcd_str("by shtomik");
	_delay_ms(1000);
	lcd_clr();
	lcd_str("after clr");*/

start_t();
     46c:	0e 94 45 11 	call	0x228a	; 0x228a <start_t>

    //test
    ds1307_setdate(12, 12, 31, 23, 01, 35);
     470:	8c e0       	ldi	r24, 0x0C	; 12
     472:	6c e0       	ldi	r22, 0x0C	; 12
     474:	4f e1       	ldi	r20, 0x1F	; 31
     476:	27 e1       	ldi	r18, 0x17	; 23
     478:	01 e0       	ldi	r16, 0x01	; 1
     47a:	a3 e2       	ldi	r26, 0x23	; 35
     47c:	ea 2e       	mov	r14, r26
     47e:	0e 94 66 07 	call	0xecc	; 0xecc <ds1307_setdate>

//смонтировать microSD
res = pf_mount(&fs);
     482:	8b e0       	ldi	r24, 0x0B	; 11
     484:	92 e0       	ldi	r25, 0x02	; 2
     486:	0e 94 43 0f 	call	0x1e86	; 0x1e86 <pf_mount>
     48a:	80 93 40 04 	sts	0x0440, r24
if(res == FR_OK)
     48e:	88 23       	and	r24, r24
     490:	09 f0       	breq	.+2      	; 0x494 <__stack+0x35>
     492:	46 c0       	rjmp	.+140    	; 0x520 <__stack+0xc1>
{
    //диск смонтирован и мы продолжаем работу
    if(pf_open("test.txt") == FR_OK)
     494:	80 e6       	ldi	r24, 0x60	; 96
     496:	90 e0       	ldi	r25, 0x00	; 0
     498:	0e 94 be 0b 	call	0x177c	; 0x177c <pf_open>
     49c:	88 23       	and	r24, r24
     49e:	89 f5       	brne	.+98     	; 0x502 <__stack+0xa3>
    {
        //открыли файл в корне test.txt
        //...
        pf_lseek(0);
     4a0:	60 e0       	ldi	r22, 0x00	; 0
     4a2:	70 e0       	ldi	r23, 0x00	; 0
     4a4:	80 e0       	ldi	r24, 0x00	; 0
     4a6:	90 e0       	ldi	r25, 0x00	; 0
     4a8:	0e 94 8e 0a 	call	0x151c	; 0x151c <pf_lseek>
            //заполняем буффер, надо набрать 512 байт инфы и писать
			//иначе будет много лишних пробелов
            //sprintf(buff, "%s\n%s", "Hello,World!", "by_sht");
            //записываем его на карту
            pf_write(buff, 512, &br);
     4ac:	85 e3       	ldi	r24, 0x35	; 53
     4ae:	92 e0       	ldi	r25, 0x02	; 2
     4b0:	60 e0       	ldi	r22, 0x00	; 0
     4b2:	72 e0       	ldi	r23, 0x02	; 2
     4b4:	45 e3       	ldi	r20, 0x35	; 53
     4b6:	54 e0       	ldi	r21, 0x04	; 4
     4b8:	0e 94 17 0e 	call	0x1c2e	; 0x1c2e <pf_write>
			//финализируем запись
       		pf_write(NULL, 0, &br);
     4bc:	80 e0       	ldi	r24, 0x00	; 0
     4be:	90 e0       	ldi	r25, 0x00	; 0
     4c0:	60 e0       	ldi	r22, 0x00	; 0
     4c2:	70 e0       	ldi	r23, 0x00	; 0
     4c4:	45 e3       	ldi	r20, 0x35	; 53
     4c6:	54 e0       	ldi	r21, 0x04	; 4
     4c8:	0e 94 17 0e 	call	0x1c2e	; 0x1c2e <pf_write>
			pf_lseek(512);
     4cc:	60 e0       	ldi	r22, 0x00	; 0
     4ce:	72 e0       	ldi	r23, 0x02	; 2
     4d0:	80 e0       	ldi	r24, 0x00	; 0
     4d2:	90 e0       	ldi	r25, 0x00	; 0
     4d4:	0e 94 8e 0a 	call	0x151c	; 0x151c <pf_lseek>
			pf_write(buff, 512, &br);
     4d8:	85 e3       	ldi	r24, 0x35	; 53
     4da:	92 e0       	ldi	r25, 0x02	; 2
     4dc:	60 e0       	ldi	r22, 0x00	; 0
     4de:	72 e0       	ldi	r23, 0x02	; 2
     4e0:	45 e3       	ldi	r20, 0x35	; 53
     4e2:	54 e0       	ldi	r21, 0x04	; 4
     4e4:	0e 94 17 0e 	call	0x1c2e	; 0x1c2e <pf_write>
        	//финализируем запись
        	pf_write(NULL, 0, &br);
     4e8:	80 e0       	ldi	r24, 0x00	; 0
     4ea:	90 e0       	ldi	r25, 0x00	; 0
     4ec:	60 e0       	ldi	r22, 0x00	; 0
     4ee:	70 e0       	ldi	r23, 0x00	; 0
     4f0:	45 e3       	ldi	r20, 0x35	; 53
     4f2:	54 e0       	ldi	r21, 0x04	; 4
     4f4:	0e 94 17 0e 	call	0x1c2e	; 0x1c2e <pf_write>

		lcd_clr();
     4f8:	0e 94 83 08 	call	0x1106	; 0x1106 <lcd_clr>
        lcd_str("ok");
     4fc:	89 e6       	ldi	r24, 0x69	; 105
     4fe:	90 e0       	ldi	r25, 0x00	; 0
     500:	02 c0       	rjmp	.+4      	; 0x506 <__stack+0xa7>
    }
    else
    {
        //file not found or ...
        lcd_str("file not found");
     502:	8c e6       	ldi	r24, 0x6C	; 108
     504:	90 e0       	ldi	r25, 0x00	; 0
     506:	0e 94 af 08 	call	0x115e	; 0x115e <lcd_str>
    }
    //демонтируем диск передав функции нулевой указатель
    pf_mount(NULL);
     50a:	80 e0       	ldi	r24, 0x00	; 0
     50c:	90 e0       	ldi	r25, 0x00	; 0
     50e:	0e 94 43 0f 	call	0x1e86	; 0x1e86 <pf_mount>
	lcd_clr();
     512:	0e 94 83 08 	call	0x1106	; 0x1106 <lcd_clr>
	lcd_str("file write");
     516:	8b e7       	ldi	r24, 0x7B	; 123
     518:	90 e0       	ldi	r25, 0x00	; 0
     51a:	0e 94 af 08 	call	0x115e	; 0x115e <lcd_str>
     51e:	06 c0       	rjmp	.+12     	; 0x52c <__stack+0xcd>
}
else
{
    //не удалось смонтировать диск
	lcd_clr();
     520:	0e 94 83 08 	call	0x1106	; 0x1106 <lcd_clr>
    lcd_str("not flash");
     524:	86 e8       	ldi	r24, 0x86	; 134
     526:	90 e0       	ldi	r25, 0x00	; 0
     528:	0e 94 af 08 	call	0x115e	; 0x115e <lcd_str>
     52c:	ff cf       	rjmp	.-2      	; 0x52c <__stack+0xcd>

0000052e <adc_init>:
#include "adc.h"
#include "header.h"

void adc_init(void)
{
    ADCSRA |= (1<<ADEN) | (1<<ADPS2) | (1<<ADPS1) | (1<<ADPS0);
     52e:	86 b1       	in	r24, 0x06	; 6
     530:	87 68       	ori	r24, 0x87	; 135
     532:	86 b9       	out	0x06, r24	; 6
    /*ADEN = 1 - Включить АЦП
      ADPS2..0 = 111 - Предделитель - 128*/
}
     534:	08 95       	ret

00000536 <start_base_adc>:

unsigned int start_base_adc(void)
{
    ADMUX |= (1<<MUX2);
     536:	3a 9a       	sbi	0x07, 2	; 7
    ADMUX &= ~(1<<MUX1);
     538:	39 98       	cbi	0x07, 1	; 7
    ADMUX &= ~(1<<MUX0);
     53a:	38 98       	cbi	0x07, 0	; 7
      Так же выбираем канал измерения PA4
      Это наша линия 50..255В
      Если амплитуда напряжения будет ниже 50В
      Это будет вносить большую погрешность в измерения
      Просьба обратить на это внимание...*/
    ADCSRA |= (1<<ADSC);                    /*Запуск АЦП*/
     53c:	36 9a       	sbi	0x06, 6	; 6
    while(ADCSRA & (1<<ADSC));   /*Ожидание окончания преобразования*/
     53e:	36 99       	sbic	0x06, 6	; 6
     540:	fe cf       	rjmp	.-4      	; 0x53e <start_base_adc+0x8>
    return ADC;             /*Возвращаем значение измерения*/
     542:	24 b1       	in	r18, 0x04	; 4
     544:	35 b1       	in	r19, 0x05	; 5
}
     546:	c9 01       	movw	r24, r18
     548:	08 95       	ret

0000054a <start_half_adc>:

unsigned int start_half_adc(void)
{
    ADMUX |= (1<<MUX2);
     54a:	3a 9a       	sbi	0x07, 2	; 7
    ADMUX &= ~(1<<MUX1);
     54c:	39 98       	cbi	0x07, 1	; 7
    ADMUX |= (1<<MUX0);
     54e:	38 9a       	sbi	0x07, 0	; 7
      Это наша линия N(ноль)
      Это измерение нужно, чтобы уменьшить погрешность измерения
      Измерение этого напряжение поможет понять где ноль
      И произвести измерение более точнее, чем просто
      Предполагать что ноль будет нулем :)*/
    ADCSRA |= (1<<ADSC);                    /*Запуск АЦП*/
     550:	36 9a       	sbi	0x06, 6	; 6
    while(ADCSRA & (1<<ADSC));   /*Ожидание окончания преобразования*/
     552:	36 99       	sbic	0x06, 6	; 6
     554:	fe cf       	rjmp	.-4      	; 0x552 <start_half_adc+0x8>
    return ADC;             /*Возвращаем значение измерения*/
     556:	24 b1       	in	r18, 0x04	; 4
     558:	35 b1       	in	r19, 0x05	; 5
}
     55a:	c9 01       	movw	r24, r18
     55c:	08 95       	ret

0000055e <show_menu>:
	}
}

void show_menu(void)
{
	mode %= count_of_menu;
     55e:	80 91 e4 01 	lds	r24, 0x01E4
     562:	63 e0       	ldi	r22, 0x03	; 3
     564:	0e 94 48 18 	call	0x3090	; 0x3090 <__udivmodqi4>
     568:	90 93 e4 01 	sts	0x01E4, r25
	switch(mode)
     56c:	91 30       	cpi	r25, 0x01	; 1
     56e:	51 f0       	breq	.+20     	; 0x584 <show_menu+0x26>
     570:	91 30       	cpi	r25, 0x01	; 1
     572:	18 f0       	brcs	.+6      	; 0x57a <show_menu+0x1c>
     574:	92 30       	cpi	r25, 0x02	; 2
     576:	81 f4       	brne	.+32     	; 0x598 <show_menu+0x3a>
     578:	0a c0       	rjmp	.+20     	; 0x58e <show_menu+0x30>
	{
		case 0: /*first menu*/
		    lcd_clr();
     57a:	0e 94 83 08 	call	0x1106	; 0x1106 <lcd_clr>
			lcd_str(menu_1);
     57e:	80 e9       	ldi	r24, 0x90	; 144
     580:	90 e0       	ldi	r25, 0x00	; 0
     582:	0e c0       	rjmp	.+28     	; 0x5a0 <show_menu+0x42>
		break;
		case 1: /*second menu*/
			lcd_clr();
     584:	0e 94 83 08 	call	0x1106	; 0x1106 <lcd_clr>
			lcd_str(menu_2);
     588:	85 e9       	ldi	r24, 0x95	; 149
     58a:	90 e0       	ldi	r25, 0x00	; 0
     58c:	09 c0       	rjmp	.+18     	; 0x5a0 <show_menu+0x42>
		break;
        case 2: /*third menu*/
            lcd_clr();
     58e:	0e 94 83 08 	call	0x1106	; 0x1106 <lcd_clr>
            lcd_str(menu_3);
     592:	81 ea       	ldi	r24, 0xA1	; 161
     594:	90 e0       	ldi	r25, 0x00	; 0
     596:	04 c0       	rjmp	.+8      	; 0x5a0 <show_menu+0x42>
        break;
		default:lcd_clr();lcd_str("Error!!!");
     598:	0e 94 83 08 	call	0x1106	; 0x1106 <lcd_clr>
     59c:	8b ea       	ldi	r24, 0xAB	; 171
     59e:	90 e0       	ldi	r25, 0x00	; 0
     5a0:	0e 94 af 08 	call	0x115e	; 0x115e <lcd_str>
     5a4:	08 95       	ret

000005a6 <setup_time>:
    lcd_gotoxy(1,0);
    lcd_str(buf_date);
}

void setup_time(void)
{
     5a6:	1f 93       	push	r17
    if(menu == 2)
     5a8:	80 91 e5 01 	lds	r24, 0x01E5
     5ac:	82 30       	cpi	r24, 0x02	; 2
     5ae:	61 f4       	brne	.+24     	; 0x5c8 <setup_time+0x22>
        change_time = 1;
     5b0:	11 e0       	ldi	r17, 0x01	; 1
     5b2:	10 93 e6 01 	sts	0x01E6, r17
    if(menu == 2 && (change_time > 0 && change_time < 7))
    {
        lcd_cmd_full_byte(0x0F);    /*Установка мигающего курсора*/
     5b6:	8f e0       	ldi	r24, 0x0F	; 15
     5b8:	0e 94 59 08 	call	0x10b2	; 0x10b2 <lcd_cmd_full_byte>
        change_time = 1;
     5bc:	10 93 e6 01 	sts	0x01E6, r17
        lcd_gotoxy(0,1);
     5c0:	80 e0       	ldi	r24, 0x00	; 0
     5c2:	61 e0       	ldi	r22, 0x01	; 1
     5c4:	0e 94 72 08 	call	0x10e4	; 0x10e4 <lcd_gotoxy>
    }
    if(menu == 0 && change_time == 0)
     5c8:	80 91 e5 01 	lds	r24, 0x01E5
     5cc:	88 23       	and	r24, r24
     5ce:	51 f4       	brne	.+20     	; 0x5e4 <setup_time+0x3e>
     5d0:	80 91 e6 01 	lds	r24, 0x01E6
     5d4:	88 23       	and	r24, r24
     5d6:	31 f4       	brne	.+12     	; 0x5e4 <setup_time+0x3e>
    {
        lcd_clr();
     5d8:	0e 94 83 08 	call	0x1106	; 0x1106 <lcd_clr>
        lcd_str(error);
     5dc:	84 eb       	ldi	r24, 0xB4	; 180
     5de:	90 e0       	ldi	r25, 0x00	; 0
     5e0:	0e 94 af 08 	call	0x115e	; 0x115e <lcd_str>
    }
}
     5e4:	1f 91       	pop	r17
     5e6:	08 95       	ret

000005e8 <time_out>:
	lcd_clr();
	lcd_str(menu_1);                    /*Output the first menu*/
}

void time_out(void)
{
     5e8:	ef 92       	push	r14
     5ea:	ff 92       	push	r15
     5ec:	0f 93       	push	r16
     5ee:	1f 93       	push	r17
    lcd_clr();
     5f0:	0e 94 83 08 	call	0x1106	; 0x1106 <lcd_clr>
    /*Считываем с RTC дату или время*/
    ds1307_getdate(&year, &month, &day, &hour, &minute, &second);
     5f4:	87 ee       	ldi	r24, 0xE7	; 231
     5f6:	91 e0       	ldi	r25, 0x01	; 1
     5f8:	68 ee       	ldi	r22, 0xE8	; 232
     5fa:	71 e0       	ldi	r23, 0x01	; 1
     5fc:	49 ee       	ldi	r20, 0xE9	; 233
     5fe:	51 e0       	ldi	r21, 0x01	; 1
     600:	2a ee       	ldi	r18, 0xEA	; 234
     602:	31 e0       	ldi	r19, 0x01	; 1
     604:	0b ee       	ldi	r16, 0xEB	; 235
     606:	11 e0       	ldi	r17, 0x01	; 1
     608:	ec ee       	ldi	r30, 0xEC	; 236
     60a:	ee 2e       	mov	r14, r30
     60c:	e1 e0       	ldi	r30, 0x01	; 1
     60e:	fe 2e       	mov	r15, r30
     610:	0e 94 d5 07 	call	0xfaa	; 0xfaa <ds1307_getdate>
    /*Делаем преобразование данных полученых с RTC*/
    sprintf(buf_time, "%02d:%02d:%02d", hour, minute, second);
     614:	8d b7       	in	r24, 0x3d	; 61
     616:	9e b7       	in	r25, 0x3e	; 62
     618:	0a 97       	sbiw	r24, 0x0a	; 10
     61a:	0f b6       	in	r0, 0x3f	; 63
     61c:	f8 94       	cli
     61e:	9e bf       	out	0x3e, r25	; 62
     620:	0f be       	out	0x3f, r0	; 63
     622:	8d bf       	out	0x3d, r24	; 61
     624:	ed b7       	in	r30, 0x3d	; 61
     626:	fe b7       	in	r31, 0x3e	; 62
     628:	31 96       	adiw	r30, 0x01	; 1
     62a:	82 e0       	ldi	r24, 0x02	; 2
     62c:	e8 2e       	mov	r14, r24
     62e:	82 e0       	ldi	r24, 0x02	; 2
     630:	f8 2e       	mov	r15, r24
     632:	ad b7       	in	r26, 0x3d	; 61
     634:	be b7       	in	r27, 0x3e	; 62
     636:	12 96       	adiw	r26, 0x02	; 2
     638:	fc 92       	st	X, r15
     63a:	ee 92       	st	-X, r14
     63c:	11 97       	sbiw	r26, 0x01	; 1
     63e:	82 ec       	ldi	r24, 0xC2	; 194
     640:	90 e0       	ldi	r25, 0x00	; 0
     642:	93 83       	std	Z+3, r25	; 0x03
     644:	82 83       	std	Z+2, r24	; 0x02
     646:	80 91 ea 01 	lds	r24, 0x01EA
     64a:	84 83       	std	Z+4, r24	; 0x04
     64c:	15 82       	std	Z+5, r1	; 0x05
     64e:	80 91 eb 01 	lds	r24, 0x01EB
     652:	86 83       	std	Z+6, r24	; 0x06
     654:	17 82       	std	Z+7, r1	; 0x07
     656:	80 91 ec 01 	lds	r24, 0x01EC
     65a:	80 87       	std	Z+8, r24	; 0x08
     65c:	11 86       	std	Z+9, r1	; 0x09
     65e:	0e 94 d4 18 	call	0x31a8	; 0x31a8 <sprintf>
    /*Создаем строку, которую можно будет вывести на LCD*/
    sprintf(buf_date, "%02d.%02d.%02d", day, month, year);
     662:	ed b7       	in	r30, 0x3d	; 61
     664:	fe b7       	in	r31, 0x3e	; 62
     666:	31 96       	adiw	r30, 0x01	; 1
     668:	07 e3       	ldi	r16, 0x37	; 55
     66a:	14 e0       	ldi	r17, 0x04	; 4
     66c:	ad b7       	in	r26, 0x3d	; 61
     66e:	be b7       	in	r27, 0x3e	; 62
     670:	12 96       	adiw	r26, 0x02	; 2
     672:	1c 93       	st	X, r17
     674:	0e 93       	st	-X, r16
     676:	11 97       	sbiw	r26, 0x01	; 1
     678:	81 ed       	ldi	r24, 0xD1	; 209
     67a:	90 e0       	ldi	r25, 0x00	; 0
     67c:	93 83       	std	Z+3, r25	; 0x03
     67e:	82 83       	std	Z+2, r24	; 0x02
     680:	80 91 e9 01 	lds	r24, 0x01E9
     684:	84 83       	std	Z+4, r24	; 0x04
     686:	15 82       	std	Z+5, r1	; 0x05
     688:	80 91 e8 01 	lds	r24, 0x01E8
     68c:	86 83       	std	Z+6, r24	; 0x06
     68e:	17 82       	std	Z+7, r1	; 0x07
     690:	80 91 e7 01 	lds	r24, 0x01E7
     694:	80 87       	std	Z+8, r24	; 0x08
     696:	11 86       	std	Z+9, r1	; 0x09
     698:	0e 94 d4 18 	call	0x31a8	; 0x31a8 <sprintf>
    /*Вывод даты и времени на LCD*/
    lcd_str(buf_time);
     69c:	8d b7       	in	r24, 0x3d	; 61
     69e:	9e b7       	in	r25, 0x3e	; 62
     6a0:	0a 96       	adiw	r24, 0x0a	; 10
     6a2:	0f b6       	in	r0, 0x3f	; 63
     6a4:	f8 94       	cli
     6a6:	9e bf       	out	0x3e, r25	; 62
     6a8:	0f be       	out	0x3f, r0	; 63
     6aa:	8d bf       	out	0x3d, r24	; 61
     6ac:	c7 01       	movw	r24, r14
     6ae:	0e 94 af 08 	call	0x115e	; 0x115e <lcd_str>
    lcd_gotoxy(1,0);
     6b2:	81 e0       	ldi	r24, 0x01	; 1
     6b4:	60 e0       	ldi	r22, 0x00	; 0
     6b6:	0e 94 72 08 	call	0x10e4	; 0x10e4 <lcd_gotoxy>
    lcd_str(buf_date);
     6ba:	c8 01       	movw	r24, r16
     6bc:	0e 94 af 08 	call	0x115e	; 0x115e <lcd_str>
}
     6c0:	1f 91       	pop	r17
     6c2:	0f 91       	pop	r16
     6c4:	ff 90       	pop	r15
     6c6:	ef 90       	pop	r14
     6c8:	08 95       	ret

000006ca <set_time>:
		default:lcd_clr();lcd_str("Error!!!");
	}
}

void set_time(void)
{
     6ca:	ef 92       	push	r14
     6cc:	0f 93       	push	r16
    /*Установка времени и даты на RTC*/
    ds1307_setdate(year, month, day, hour, minute, second);
     6ce:	80 91 e7 01 	lds	r24, 0x01E7
     6d2:	60 91 e8 01 	lds	r22, 0x01E8
     6d6:	40 91 e9 01 	lds	r20, 0x01E9
     6da:	20 91 ea 01 	lds	r18, 0x01EA
     6de:	00 91 eb 01 	lds	r16, 0x01EB
     6e2:	e0 90 ec 01 	lds	r14, 0x01EC
     6e6:	0e 94 66 07 	call	0xecc	; 0xecc <ds1307_setdate>
    time_out();
     6ea:	0e 94 f4 02 	call	0x5e8	; 0x5e8 <time_out>
    switch(change_time)
     6ee:	80 91 e6 01 	lds	r24, 0x01E6
     6f2:	83 30       	cpi	r24, 0x03	; 3
     6f4:	81 f0       	breq	.+32     	; 0x716 <set_time+0x4c>
     6f6:	84 30       	cpi	r24, 0x04	; 4
     6f8:	28 f4       	brcc	.+10     	; 0x704 <set_time+0x3a>
     6fa:	81 30       	cpi	r24, 0x01	; 1
     6fc:	b1 f0       	breq	.+44     	; 0x72a <set_time+0x60>
     6fe:	82 30       	cpi	r24, 0x02	; 2
     700:	a1 f4       	brne	.+40     	; 0x72a <set_time+0x60>
     702:	07 c0       	rjmp	.+14     	; 0x712 <set_time+0x48>
     704:	85 30       	cpi	r24, 0x05	; 5
     706:	59 f0       	breq	.+22     	; 0x71e <set_time+0x54>
     708:	85 30       	cpi	r24, 0x05	; 5
     70a:	38 f0       	brcs	.+14     	; 0x71a <set_time+0x50>
     70c:	86 30       	cpi	r24, 0x06	; 6
     70e:	69 f4       	brne	.+26     	; 0x72a <set_time+0x60>
     710:	09 c0       	rjmp	.+18     	; 0x724 <set_time+0x5a>
    {
        case 1:
            lcd_gotoxy(0,1);
        break;
        case 2:
            lcd_gotoxy(0,4);
     712:	80 e0       	ldi	r24, 0x00	; 0
     714:	05 c0       	rjmp	.+10     	; 0x720 <set_time+0x56>
        break;
        case 3:
            lcd_gotoxy(0,7);
     716:	80 e0       	ldi	r24, 0x00	; 0
     718:	06 c0       	rjmp	.+12     	; 0x726 <set_time+0x5c>
        break;
        case 4:
            lcd_gotoxy(1,1);
     71a:	81 e0       	ldi	r24, 0x01	; 1
     71c:	07 c0       	rjmp	.+14     	; 0x72c <set_time+0x62>
        break;
        case 5:
            lcd_gotoxy(1,4);
     71e:	81 e0       	ldi	r24, 0x01	; 1
     720:	64 e0       	ldi	r22, 0x04	; 4
     722:	05 c0       	rjmp	.+10     	; 0x72e <set_time+0x64>
        break;
        case 6:
            lcd_gotoxy(1,7);
     724:	81 e0       	ldi	r24, 0x01	; 1
     726:	67 e0       	ldi	r22, 0x07	; 7
     728:	02 c0       	rjmp	.+4      	; 0x72e <set_time+0x64>
        break;
        default:lcd_gotoxy(0,1);
     72a:	80 e0       	ldi	r24, 0x00	; 0
     72c:	61 e0       	ldi	r22, 0x01	; 1
     72e:	0e 94 72 08 	call	0x10e4	; 0x10e4 <lcd_gotoxy>
    }
}
     732:	0f 91       	pop	r16
     734:	ef 90       	pop	r14
     736:	08 95       	ret

00000738 <btt_down>:
	}
}

void btt_down(void)
{
    if(menu == 1)
     738:	80 91 e5 01 	lds	r24, 0x01E5
     73c:	81 30       	cpi	r24, 0x01	; 1
     73e:	39 f4       	brne	.+14     	; 0x74e <btt_down+0x16>
    {
        ++mode;
     740:	80 91 e4 01 	lds	r24, 0x01E4
     744:	8f 5f       	subi	r24, 0xFF	; 255
     746:	80 93 e4 01 	sts	0x01E4, r24
        show_menu();
     74a:	0e 94 af 02 	call	0x55e	; 0x55e <show_menu>
    }
    if(menu == 2 && (change_time > 0 && change_time < 7))
     74e:	80 91 e5 01 	lds	r24, 0x01E5
     752:	82 30       	cpi	r24, 0x02	; 2
     754:	09 f0       	breq	.+2      	; 0x758 <btt_down+0x20>
     756:	5c c0       	rjmp	.+184    	; 0x810 <btt_down+0xd8>
     758:	90 91 e6 01 	lds	r25, 0x01E6
     75c:	89 2f       	mov	r24, r25
     75e:	81 50       	subi	r24, 0x01	; 1
     760:	86 30       	cpi	r24, 0x06	; 6
     762:	08 f0       	brcs	.+2      	; 0x766 <btt_down+0x2e>
     764:	55 c0       	rjmp	.+170    	; 0x810 <btt_down+0xd8>
    {
        switch(change_time)
     766:	93 30       	cpi	r25, 0x03	; 3
     768:	31 f1       	breq	.+76     	; 0x7b6 <btt_down+0x7e>
     76a:	94 30       	cpi	r25, 0x04	; 4
     76c:	30 f4       	brcc	.+12     	; 0x77a <btt_down+0x42>
     76e:	91 30       	cpi	r25, 0x01	; 1
     770:	61 f0       	breq	.+24     	; 0x78a <btt_down+0x52>
     772:	92 30       	cpi	r25, 0x02	; 2
     774:	09 f0       	breq	.+2      	; 0x778 <btt_down+0x40>
     776:	4a c0       	rjmp	.+148    	; 0x80c <btt_down+0xd4>
     778:	13 c0       	rjmp	.+38     	; 0x7a0 <btt_down+0x68>
     77a:	95 30       	cpi	r25, 0x05	; 5
     77c:	91 f1       	breq	.+100    	; 0x7e2 <btt_down+0xaa>
     77e:	95 30       	cpi	r25, 0x05	; 5
     780:	28 f1       	brcs	.+74     	; 0x7cc <btt_down+0x94>
     782:	96 30       	cpi	r25, 0x06	; 6
     784:	09 f0       	breq	.+2      	; 0x788 <btt_down+0x50>
     786:	42 c0       	rjmp	.+132    	; 0x80c <btt_down+0xd4>
     788:	37 c0       	rjmp	.+110    	; 0x7f8 <btt_down+0xc0>
        {
            case 1:
                if(--hour == 255) hour = 23;
     78a:	80 91 ea 01 	lds	r24, 0x01EA
     78e:	81 50       	subi	r24, 0x01	; 1
     790:	80 93 ea 01 	sts	0x01EA, r24
     794:	8f 3f       	cpi	r24, 0xFF	; 255
     796:	d1 f5       	brne	.+116    	; 0x80c <btt_down+0xd4>
     798:	87 e1       	ldi	r24, 0x17	; 23
     79a:	80 93 ea 01 	sts	0x01EA, r24
     79e:	36 c0       	rjmp	.+108    	; 0x80c <btt_down+0xd4>
            break;
            case 2:
                if(--minute == 255) minute = 59;
     7a0:	80 91 eb 01 	lds	r24, 0x01EB
     7a4:	81 50       	subi	r24, 0x01	; 1
     7a6:	80 93 eb 01 	sts	0x01EB, r24
     7aa:	8f 3f       	cpi	r24, 0xFF	; 255
     7ac:	79 f5       	brne	.+94     	; 0x80c <btt_down+0xd4>
     7ae:	8b e3       	ldi	r24, 0x3B	; 59
     7b0:	80 93 eb 01 	sts	0x01EB, r24
     7b4:	2b c0       	rjmp	.+86     	; 0x80c <btt_down+0xd4>
            break;
            case 3:
                if(--second == 255) second = 59;
     7b6:	80 91 ec 01 	lds	r24, 0x01EC
     7ba:	81 50       	subi	r24, 0x01	; 1
     7bc:	80 93 ec 01 	sts	0x01EC, r24
     7c0:	8f 3f       	cpi	r24, 0xFF	; 255
     7c2:	21 f5       	brne	.+72     	; 0x80c <btt_down+0xd4>
     7c4:	8b e3       	ldi	r24, 0x3B	; 59
     7c6:	80 93 ec 01 	sts	0x01EC, r24
     7ca:	20 c0       	rjmp	.+64     	; 0x80c <btt_down+0xd4>
            break;
            case 4:
                if(--day == 0) day = 31;
     7cc:	80 91 e9 01 	lds	r24, 0x01E9
     7d0:	81 50       	subi	r24, 0x01	; 1
     7d2:	80 93 e9 01 	sts	0x01E9, r24
     7d6:	88 23       	and	r24, r24
     7d8:	c9 f4       	brne	.+50     	; 0x80c <btt_down+0xd4>
     7da:	8f e1       	ldi	r24, 0x1F	; 31
     7dc:	80 93 e9 01 	sts	0x01E9, r24
     7e0:	15 c0       	rjmp	.+42     	; 0x80c <btt_down+0xd4>
            break;
            case 5:
                if(--month == 0) month = 12;
     7e2:	80 91 e8 01 	lds	r24, 0x01E8
     7e6:	81 50       	subi	r24, 0x01	; 1
     7e8:	80 93 e8 01 	sts	0x01E8, r24
     7ec:	88 23       	and	r24, r24
     7ee:	71 f4       	brne	.+28     	; 0x80c <btt_down+0xd4>
     7f0:	8c e0       	ldi	r24, 0x0C	; 12
     7f2:	80 93 e8 01 	sts	0x01E8, r24
     7f6:	0a c0       	rjmp	.+20     	; 0x80c <btt_down+0xd4>
            break;
            case 6:
                if(--year == 255) year = 99;
     7f8:	80 91 e7 01 	lds	r24, 0x01E7
     7fc:	81 50       	subi	r24, 0x01	; 1
     7fe:	80 93 e7 01 	sts	0x01E7, r24
     802:	8f 3f       	cpi	r24, 0xFF	; 255
     804:	19 f4       	brne	.+6      	; 0x80c <btt_down+0xd4>
     806:	83 e6       	ldi	r24, 0x63	; 99
     808:	80 93 e7 01 	sts	0x01E7, r24
            break;
        }
        set_time();
     80c:	0e 94 65 03 	call	0x6ca	; 0x6ca <set_time>
    }
	if(menu == 0 && change_time == 0)
     810:	80 91 e5 01 	lds	r24, 0x01E5
     814:	88 23       	and	r24, r24
     816:	51 f4       	brne	.+20     	; 0x82c <btt_down+0xf4>
     818:	80 91 e6 01 	lds	r24, 0x01E6
     81c:	88 23       	and	r24, r24
     81e:	31 f4       	brne	.+12     	; 0x82c <btt_down+0xf4>
	{
		lcd_clr();
     820:	0e 94 83 08 	call	0x1106	; 0x1106 <lcd_clr>
		lcd_str(error);
     824:	84 eb       	ldi	r24, 0xB4	; 180
     826:	90 e0       	ldi	r25, 0x00	; 0
     828:	0e 94 af 08 	call	0x115e	; 0x115e <lcd_str>
     82c:	08 95       	ret

0000082e <btt_up>:
    }
}

void btt_up(void)
{
    if(menu == 1)
     82e:	80 91 e5 01 	lds	r24, 0x01E5
     832:	81 30       	cpi	r24, 0x01	; 1
     834:	71 f4       	brne	.+28     	; 0x852 <btt_up+0x24>
    {
        if(mode == 0) mode = count_of_menu;
     836:	80 91 e4 01 	lds	r24, 0x01E4
     83a:	88 23       	and	r24, r24
     83c:	19 f4       	brne	.+6      	; 0x844 <btt_up+0x16>
     83e:	83 e0       	ldi	r24, 0x03	; 3
     840:	80 93 e4 01 	sts	0x01E4, r24
        --mode;
     844:	80 91 e4 01 	lds	r24, 0x01E4
     848:	81 50       	subi	r24, 0x01	; 1
     84a:	80 93 e4 01 	sts	0x01E4, r24
        show_menu();
     84e:	0e 94 af 02 	call	0x55e	; 0x55e <show_menu>
    }
    if(menu == 2 && (change_time > 0 && change_time < 7))
     852:	80 91 e5 01 	lds	r24, 0x01E5
     856:	82 30       	cpi	r24, 0x02	; 2
     858:	09 f0       	breq	.+2      	; 0x85c <btt_up+0x2e>
     85a:	57 c0       	rjmp	.+174    	; 0x90a <btt_up+0xdc>
     85c:	90 91 e6 01 	lds	r25, 0x01E6
     860:	89 2f       	mov	r24, r25
     862:	81 50       	subi	r24, 0x01	; 1
     864:	86 30       	cpi	r24, 0x06	; 6
     866:	08 f0       	brcs	.+2      	; 0x86a <btt_up+0x3c>
     868:	50 c0       	rjmp	.+160    	; 0x90a <btt_up+0xdc>
    {
        switch(change_time)
     86a:	93 30       	cpi	r25, 0x03	; 3
     86c:	19 f1       	breq	.+70     	; 0x8b4 <btt_up+0x86>
     86e:	94 30       	cpi	r25, 0x04	; 4
     870:	30 f4       	brcc	.+12     	; 0x87e <btt_up+0x50>
     872:	91 30       	cpi	r25, 0x01	; 1
     874:	59 f0       	breq	.+22     	; 0x88c <btt_up+0x5e>
     876:	92 30       	cpi	r25, 0x02	; 2
     878:	09 f0       	breq	.+2      	; 0x87c <btt_up+0x4e>
     87a:	45 c0       	rjmp	.+138    	; 0x906 <btt_up+0xd8>
     87c:	11 c0       	rjmp	.+34     	; 0x8a0 <btt_up+0x72>
     87e:	95 30       	cpi	r25, 0x05	; 5
     880:	71 f1       	breq	.+92     	; 0x8de <btt_up+0xb0>
     882:	95 30       	cpi	r25, 0x05	; 5
     884:	08 f1       	brcs	.+66     	; 0x8c8 <btt_up+0x9a>
     886:	96 30       	cpi	r25, 0x06	; 6
     888:	f1 f5       	brne	.+124    	; 0x906 <btt_up+0xd8>
     88a:	34 c0       	rjmp	.+104    	; 0x8f4 <btt_up+0xc6>
        /*Увеличение показателя*/
        {
            case 1:
                if(++hour == 24) hour = 0;
     88c:	80 91 ea 01 	lds	r24, 0x01EA
     890:	8f 5f       	subi	r24, 0xFF	; 255
     892:	80 93 ea 01 	sts	0x01EA, r24
     896:	88 31       	cpi	r24, 0x18	; 24
     898:	b1 f5       	brne	.+108    	; 0x906 <btt_up+0xd8>
     89a:	10 92 ea 01 	sts	0x01EA, r1
     89e:	33 c0       	rjmp	.+102    	; 0x906 <btt_up+0xd8>
            break;
            case 2:
                if(++minute == 60) minute = 0;
     8a0:	80 91 eb 01 	lds	r24, 0x01EB
     8a4:	8f 5f       	subi	r24, 0xFF	; 255
     8a6:	80 93 eb 01 	sts	0x01EB, r24
     8aa:	8c 33       	cpi	r24, 0x3C	; 60
     8ac:	61 f5       	brne	.+88     	; 0x906 <btt_up+0xd8>
     8ae:	10 92 eb 01 	sts	0x01EB, r1
     8b2:	29 c0       	rjmp	.+82     	; 0x906 <btt_up+0xd8>
            break;
            case 3:
                if(++second == 60) second = 0;
     8b4:	80 91 ec 01 	lds	r24, 0x01EC
     8b8:	8f 5f       	subi	r24, 0xFF	; 255
     8ba:	80 93 ec 01 	sts	0x01EC, r24
     8be:	8c 33       	cpi	r24, 0x3C	; 60
     8c0:	11 f5       	brne	.+68     	; 0x906 <btt_up+0xd8>
     8c2:	10 92 ec 01 	sts	0x01EC, r1
     8c6:	1f c0       	rjmp	.+62     	; 0x906 <btt_up+0xd8>
            break;
            case 4:
                if(++day == 32) day = 1;
     8c8:	80 91 e9 01 	lds	r24, 0x01E9
     8cc:	8f 5f       	subi	r24, 0xFF	; 255
     8ce:	80 93 e9 01 	sts	0x01E9, r24
     8d2:	80 32       	cpi	r24, 0x20	; 32
     8d4:	c1 f4       	brne	.+48     	; 0x906 <btt_up+0xd8>
     8d6:	81 e0       	ldi	r24, 0x01	; 1
     8d8:	80 93 e9 01 	sts	0x01E9, r24
     8dc:	14 c0       	rjmp	.+40     	; 0x906 <btt_up+0xd8>
            break;
            case 5:
                if(++month == 13) month = 1;
     8de:	80 91 e8 01 	lds	r24, 0x01E8
     8e2:	8f 5f       	subi	r24, 0xFF	; 255
     8e4:	80 93 e8 01 	sts	0x01E8, r24
     8e8:	8d 30       	cpi	r24, 0x0D	; 13
     8ea:	69 f4       	brne	.+26     	; 0x906 <btt_up+0xd8>
     8ec:	81 e0       	ldi	r24, 0x01	; 1
     8ee:	80 93 e8 01 	sts	0x01E8, r24
     8f2:	09 c0       	rjmp	.+18     	; 0x906 <btt_up+0xd8>
            break;
            case 6:
                if(++year == 100) year = 0;
     8f4:	80 91 e7 01 	lds	r24, 0x01E7
     8f8:	8f 5f       	subi	r24, 0xFF	; 255
     8fa:	80 93 e7 01 	sts	0x01E7, r24
     8fe:	84 36       	cpi	r24, 0x64	; 100
     900:	11 f4       	brne	.+4      	; 0x906 <btt_up+0xd8>
     902:	10 92 e7 01 	sts	0x01E7, r1
            break;
        }
        set_time();
     906:	0e 94 65 03 	call	0x6ca	; 0x6ca <set_time>
    }
	if(menu == 0 && change_time == 0)
     90a:	80 91 e5 01 	lds	r24, 0x01E5
     90e:	88 23       	and	r24, r24
     910:	51 f4       	brne	.+20     	; 0x926 <btt_up+0xf8>
     912:	80 91 e6 01 	lds	r24, 0x01E6
     916:	88 23       	and	r24, r24
     918:	31 f4       	brne	.+12     	; 0x926 <btt_up+0xf8>
	{
		lcd_clr();
     91a:	0e 94 83 08 	call	0x1106	; 0x1106 <lcd_clr>
		lcd_str(error);
     91e:	84 eb       	ldi	r24, 0xB4	; 180
     920:	90 e0       	ldi	r25, 0x00	; 0
     922:	0e 94 af 08 	call	0x115e	; 0x115e <lcd_str>
     926:	08 95       	ret

00000928 <btt_set>:
    }
}

void btt_set(void)
{
    if(menu == 2 && (change_time > 0 && change_time < 7))
     928:	80 91 e5 01 	lds	r24, 0x01E5
     92c:	82 30       	cpi	r24, 0x02	; 2
     92e:	51 f5       	brne	.+84     	; 0x984 <btt_set+0x5c>
     930:	90 91 e6 01 	lds	r25, 0x01E6
     934:	89 2f       	mov	r24, r25
     936:	81 50       	subi	r24, 0x01	; 1
     938:	86 30       	cpi	r24, 0x06	; 6
     93a:	20 f5       	brcc	.+72     	; 0x984 <btt_set+0x5c>
    {
        ++change_time;
     93c:	8e 5f       	subi	r24, 0xFE	; 254
     93e:	80 93 e6 01 	sts	0x01E6, r24
        switch(change_time)
     942:	84 30       	cpi	r24, 0x04	; 4
     944:	81 f0       	breq	.+32     	; 0x966 <btt_set+0x3e>
     946:	85 30       	cpi	r24, 0x05	; 5
     948:	28 f4       	brcc	.+10     	; 0x954 <btt_set+0x2c>
     94a:	82 30       	cpi	r24, 0x02	; 2
     94c:	41 f0       	breq	.+16     	; 0x95e <btt_set+0x36>
     94e:	83 30       	cpi	r24, 0x03	; 3
     950:	91 f4       	brne	.+36     	; 0x976 <btt_set+0x4e>
     952:	07 c0       	rjmp	.+14     	; 0x962 <btt_set+0x3a>
     954:	85 30       	cpi	r24, 0x05	; 5
     956:	49 f0       	breq	.+18     	; 0x96a <btt_set+0x42>
     958:	86 30       	cpi	r24, 0x06	; 6
     95a:	69 f4       	brne	.+26     	; 0x976 <btt_set+0x4e>
     95c:	09 c0       	rjmp	.+18     	; 0x970 <btt_set+0x48>
        {
            case 2: lcd_gotoxy(0,4); break;//setup the minute
     95e:	80 e0       	ldi	r24, 0x00	; 0
     960:	05 c0       	rjmp	.+10     	; 0x96c <btt_set+0x44>
            case 3: lcd_gotoxy(0,7); break;//setup the second
     962:	80 e0       	ldi	r24, 0x00	; 0
     964:	06 c0       	rjmp	.+12     	; 0x972 <btt_set+0x4a>
            case 4: lcd_gotoxy(1,1); break;//setup the day
     966:	81 e0       	ldi	r24, 0x01	; 1
     968:	0a c0       	rjmp	.+20     	; 0x97e <btt_set+0x56>
            case 5: lcd_gotoxy(1,4); break;//setup the month
     96a:	81 e0       	ldi	r24, 0x01	; 1
     96c:	64 e0       	ldi	r22, 0x04	; 4
     96e:	08 c0       	rjmp	.+16     	; 0x980 <btt_set+0x58>
            case 6: lcd_gotoxy(1,7); break;//setup the year
     970:	81 e0       	ldi	r24, 0x01	; 1
     972:	67 e0       	ldi	r22, 0x07	; 7
     974:	05 c0       	rjmp	.+10     	; 0x980 <btt_set+0x58>
            default:change_time = 1;lcd_gotoxy(0,1);//setup the hour
     976:	81 e0       	ldi	r24, 0x01	; 1
     978:	80 93 e6 01 	sts	0x01E6, r24
     97c:	80 e0       	ldi	r24, 0x00	; 0
     97e:	61 e0       	ldi	r22, 0x01	; 1
     980:	0e 94 72 08 	call	0x10e4	; 0x10e4 <lcd_gotoxy>
        }
    }
	if(menu == 1)
     984:	80 91 e5 01 	lds	r24, 0x01E5
     988:	81 30       	cpi	r24, 0x01	; 1
     98a:	69 f5       	brne	.+90     	; 0x9e6 <btt_set+0xbe>
    {
		switch(mode)
     98c:	80 91 e4 01 	lds	r24, 0x01E4
     990:	81 30       	cpi	r24, 0x01	; 1
     992:	59 f0       	breq	.+22     	; 0x9aa <btt_set+0x82>
     994:	81 30       	cpi	r24, 0x01	; 1
     996:	18 f0       	brcs	.+6      	; 0x99e <btt_set+0x76>
     998:	82 30       	cpi	r24, 0x02	; 2
     99a:	e1 f4       	brne	.+56     	; 0x9d4 <btt_set+0xac>
     99c:	0e c0       	rjmp	.+28     	; 0x9ba <btt_set+0x92>
		{
			case 0: menu = 2;
     99e:	82 e0       	ldi	r24, 0x02	; 2
     9a0:	80 93 e5 01 	sts	0x01E5, r24
                    time_out();
     9a4:	0e 94 f4 02 	call	0x5e8	; 0x5e8 <time_out>
     9a8:	1e c0       	rjmp	.+60     	; 0x9e6 <btt_set+0xbe>
			break;
			case 1: menu = 2;
     9aa:	82 e0       	ldi	r24, 0x02	; 2
     9ac:	80 93 e5 01 	sts	0x01E5, r24
                    time_out();
     9b0:	0e 94 f4 02 	call	0x5e8	; 0x5e8 <time_out>
                    setup_time();
     9b4:	0e 94 d3 02 	call	0x5a6	; 0x5a6 <setup_time>
     9b8:	16 c0       	rjmp	.+44     	; 0x9e6 <btt_set+0xbe>
			break;
            case 2: menu = 2;
     9ba:	80 93 e5 01 	sts	0x01E5, r24
                    lcd_gotoxy(1,0);
     9be:	81 e0       	ldi	r24, 0x01	; 1
     9c0:	60 e0       	ldi	r22, 0x00	; 0
     9c2:	0e 94 72 08 	call	0x10e4	; 0x10e4 <lcd_gotoxy>
                    lcd_str("...");
     9c6:	80 ee       	ldi	r24, 0xE0	; 224
     9c8:	90 e0       	ldi	r25, 0x00	; 0
     9ca:	0e 94 af 08 	call	0x115e	; 0x115e <lcd_str>
                    start_t2();         /*Запуск таймера и измерения*/
     9ce:	0e 94 36 11 	call	0x226c	; 0x226c <start_t2>
     9d2:	09 c0       	rjmp	.+18     	; 0x9e6 <btt_set+0xbe>
            break;
			default:menu = 2;lcd_clr();lcd_str("Error!!!");
     9d4:	82 e0       	ldi	r24, 0x02	; 2
     9d6:	80 93 e5 01 	sts	0x01E5, r24
     9da:	0e 94 83 08 	call	0x1106	; 0x1106 <lcd_clr>
     9de:	8b ea       	ldi	r24, 0xAB	; 171
     9e0:	90 e0       	ldi	r25, 0x00	; 0
     9e2:	0e 94 af 08 	call	0x115e	; 0x115e <lcd_str>
		}
	}
	if(menu == 0 && change_time == 0)
     9e6:	80 91 e5 01 	lds	r24, 0x01E5
     9ea:	88 23       	and	r24, r24
     9ec:	51 f4       	brne	.+20     	; 0xa02 <btt_set+0xda>
     9ee:	80 91 e6 01 	lds	r24, 0x01E6
     9f2:	88 23       	and	r24, r24
     9f4:	31 f4       	brne	.+12     	; 0xa02 <btt_set+0xda>
	{
		lcd_clr();
     9f6:	0e 94 83 08 	call	0x1106	; 0x1106 <lcd_clr>
		lcd_str(error);
     9fa:	84 eb       	ldi	r24, 0xB4	; 180
     9fc:	90 e0       	ldi	r25, 0x00	; 0
     9fe:	0e 94 af 08 	call	0x115e	; 0x115e <lcd_str>
     a02:	08 95       	ret

00000a04 <btt_menu>:
extern char buf_time[9];
extern char buf_date[9];

void btt_menu(void)
{
menu = 1;
     a04:	81 e0       	ldi	r24, 0x01	; 1
     a06:	80 93 e5 01 	sts	0x01E5, r24
mode = 0;
     a0a:	10 92 e4 01 	sts	0x01E4, r1
change_time = 0;
     a0e:	10 92 e6 01 	sts	0x01E6, r1
stop_t2();
     a12:	0e 94 3c 11 	call	0x2278	; 0x2278 <stop_t2>
    lcd_cmd_full_byte(0b00001100);      /*Убрать курсор с LCD*/
     a16:	8c e0       	ldi	r24, 0x0C	; 12
     a18:	0e 94 59 08 	call	0x10b2	; 0x10b2 <lcd_cmd_full_byte>
	lcd_clr();
     a1c:	0e 94 83 08 	call	0x1106	; 0x1106 <lcd_clr>
	lcd_str(menu_1);                    /*Output the first menu*/
     a20:	80 e9       	ldi	r24, 0x90	; 144
     a22:	90 e0       	ldi	r25, 0x00	; 0
     a24:	0e 94 af 08 	call	0x115e	; 0x115e <lcd_str>
}
     a28:	08 95       	ret

00000a2a <send_cmd>:
static
BYTE send_cmd (
	BYTE cmd,		/* 1st byte (Start + Index) */
	DWORD arg		/* Argument (32 bits) */
)
{
     a2a:	df 92       	push	r13
     a2c:	ef 92       	push	r14
     a2e:	ff 92       	push	r15
     a30:	0f 93       	push	r16
     a32:	1f 93       	push	r17
     a34:	d8 2e       	mov	r13, r24
     a36:	7a 01       	movw	r14, r20
     a38:	8b 01       	movw	r16, r22
	BYTE n, res;


	if (cmd & 0x80) {	/* ACMD<n> is the command sequense of CMD55-CMD<n> */
     a3a:	87 ff       	sbrs	r24, 7
     a3c:	0c c0       	rjmp	.+24     	; 0xa56 <send_cmd+0x2c>
		cmd &= 0x7F;
		res = send_cmd(CMD55, 0);
     a3e:	87 e7       	ldi	r24, 0x77	; 119
     a40:	40 e0       	ldi	r20, 0x00	; 0
     a42:	50 e0       	ldi	r21, 0x00	; 0
     a44:	60 e0       	ldi	r22, 0x00	; 0
     a46:	70 e0       	ldi	r23, 0x00	; 0
     a48:	0e 94 15 05 	call	0xa2a	; 0xa2a <send_cmd>
		if (res > 1) return res;
     a4c:	82 30       	cpi	r24, 0x02	; 2
     a4e:	08 f0       	brcs	.+2      	; 0xa52 <send_cmd+0x28>
     a50:	40 c0       	rjmp	.+128    	; 0xad2 <send_cmd+0xa8>
{
	BYTE n, res;


	if (cmd & 0x80) {	/* ACMD<n> is the command sequense of CMD55-CMD<n> */
		cmd &= 0x7F;
     a52:	8f e7       	ldi	r24, 0x7F	; 127
     a54:	d8 22       	and	r13, r24
		res = send_cmd(CMD55, 0);
		if (res > 1) return res;
	}

	/* Select the card */
	DESELECT();
     a56:	c4 9a       	sbi	0x18, 4	; 24
/* ______________   _____________*/


/*    SPI*/
inline static unsigned char SPI_ReadByte_i(void){
   SPDR = 0xff;
     a58:	8f ef       	ldi	r24, 0xFF	; 255
     a5a:	8f b9       	out	0x0f, r24	; 15
   while(!(SPSR & (1<<SPIF)));
     a5c:	77 9b       	sbis	0x0e, 7	; 14
     a5e:	fe cf       	rjmp	.-4      	; 0xa5c <send_cmd+0x32>
   return SPDR;   
     a60:	8f b1       	in	r24, 0x0f	; 15
	rcv_spi();
	SELECT();
     a62:	c4 98       	cbi	0x18, 4	; 24
/* ______________   _____________*/


/*    SPI*/
inline static unsigned char SPI_ReadByte_i(void){
   SPDR = 0xff;
     a64:	8f ef       	ldi	r24, 0xFF	; 255
     a66:	8f b9       	out	0x0f, r24	; 15
   while(!(SPSR & (1<<SPIF)));
     a68:	77 9b       	sbis	0x0e, 7	; 14
     a6a:	fe cf       	rjmp	.-4      	; 0xa68 <send_cmd+0x3e>
   return SPDR;   
     a6c:	8f b1       	in	r24, 0x0f	; 15
	rcv_spi();

	/* Send a command packet */
	xmit_spi(cmd);					/* Start + Command index */
     a6e:	df b8       	out	0x0f, r13	; 15
     a70:	77 9b       	sbis	0x0e, 7	; 14
     a72:	fe cf       	rjmp	.-4      	; 0xa70 <send_cmd+0x46>
	xmit_spi((BYTE)(arg >> 24));		        /* Argument[31..24] */
     a74:	81 2f       	mov	r24, r17
     a76:	99 27       	eor	r25, r25
     a78:	aa 27       	eor	r26, r26
     a7a:	bb 27       	eor	r27, r27
     a7c:	8f b9       	out	0x0f, r24	; 15
     a7e:	77 9b       	sbis	0x0e, 7	; 14
     a80:	fe cf       	rjmp	.-4      	; 0xa7e <send_cmd+0x54>
	xmit_spi((BYTE)(arg >> 16));		        /* Argument[23..16] */
     a82:	c8 01       	movw	r24, r16
     a84:	aa 27       	eor	r26, r26
     a86:	bb 27       	eor	r27, r27
     a88:	8f b9       	out	0x0f, r24	; 15
     a8a:	77 9b       	sbis	0x0e, 7	; 14
     a8c:	fe cf       	rjmp	.-4      	; 0xa8a <send_cmd+0x60>
	xmit_spi((BYTE)(arg >> 8));			/* Argument[15..8] */
     a8e:	bb 27       	eor	r27, r27
     a90:	a1 2f       	mov	r26, r17
     a92:	90 2f       	mov	r25, r16
     a94:	8f 2d       	mov	r24, r15
     a96:	8f b9       	out	0x0f, r24	; 15
     a98:	77 9b       	sbis	0x0e, 7	; 14
     a9a:	fe cf       	rjmp	.-4      	; 0xa98 <send_cmd+0x6e>
	xmit_spi((BYTE)arg);				/* Argument[7..0] */
     a9c:	ef b8       	out	0x0f, r14	; 15
     a9e:	77 9b       	sbis	0x0e, 7	; 14
     aa0:	fe cf       	rjmp	.-4      	; 0xa9e <send_cmd+0x74>
	n = 0x01;							/* Dummy CRC + Stop */
	if (cmd == CMD0) n = 0x95;			/* Valid CRC for CMD0(0) */
     aa2:	80 e4       	ldi	r24, 0x40	; 64
     aa4:	d8 16       	cp	r13, r24
     aa6:	11 f4       	brne	.+4      	; 0xaac <send_cmd+0x82>
     aa8:	85 e9       	ldi	r24, 0x95	; 149
     aaa:	06 c0       	rjmp	.+12     	; 0xab8 <send_cmd+0x8e>
	if (cmd == CMD8) n = 0x87;			/* Valid CRC for CMD8(0x1AA) */
     aac:	88 e4       	ldi	r24, 0x48	; 72
     aae:	d8 16       	cp	r13, r24
     ab0:	11 f4       	brne	.+4      	; 0xab6 <send_cmd+0x8c>
     ab2:	87 e8       	ldi	r24, 0x87	; 135
     ab4:	01 c0       	rjmp	.+2      	; 0xab8 <send_cmd+0x8e>
     ab6:	81 e0       	ldi	r24, 0x01	; 1
	xmit_spi(n);
     ab8:	8f b9       	out	0x0f, r24	; 15
     aba:	77 9b       	sbis	0x0e, 7	; 14
     abc:	fe cf       	rjmp	.-4      	; 0xaba <send_cmd+0x90>
     abe:	9a e0       	ldi	r25, 0x0A	; 10
/* ______________   _____________*/


/*    SPI*/
inline static unsigned char SPI_ReadByte_i(void){
   SPDR = 0xff;
     ac0:	2f ef       	ldi	r18, 0xFF	; 255
     ac2:	2f b9       	out	0x0f, r18	; 15
   while(!(SPSR & (1<<SPIF)));
     ac4:	77 9b       	sbis	0x0e, 7	; 14
     ac6:	fe cf       	rjmp	.-4      	; 0xac4 <send_cmd+0x9a>
   return SPDR;   
     ac8:	8f b1       	in	r24, 0x0f	; 15

	/* Receive a command response */
	n = 10;								/* Wait for a valid response in timeout of 10 attempts */
	do {
		res = rcv_spi();
	} while ((res & 0x80) && --n);
     aca:	87 ff       	sbrs	r24, 7
     acc:	02 c0       	rjmp	.+4      	; 0xad2 <send_cmd+0xa8>
     ace:	91 50       	subi	r25, 0x01	; 1
     ad0:	c1 f7       	brne	.-16     	; 0xac2 <send_cmd+0x98>

	return res;			/* Return with the response value */
}
     ad2:	1f 91       	pop	r17
     ad4:	0f 91       	pop	r16
     ad6:	ff 90       	pop	r15
     ad8:	ef 90       	pop	r14
     ada:	df 90       	pop	r13
     adc:	08 95       	ret

00000ade <disk_readp>:
	BYTE *buff,		/* Pointer to the read buffer (NULL:Read bytes are forwarded to the stream) */
	DWORD lba,		/* Sector number (LBA) */
	WORD ofs,		/* Byte offset to read from (0..511) */
	WORD cnt		/* Number of bytes to read (ofs + cnt mus be <= 512) */
)
{
     ade:	ef 92       	push	r14
     ae0:	ff 92       	push	r15
     ae2:	0f 93       	push	r16
     ae4:	1f 93       	push	r17
     ae6:	cf 93       	push	r28
     ae8:	df 93       	push	r29
     aea:	7c 01       	movw	r14, r24
     aec:	e9 01       	movw	r28, r18
	DRESULT res;
	BYTE rc;
	WORD bc;


	if (!(CardType & CT_BLOCK)) lba *= 512;		/* Convert to byte address if needed */
     aee:	80 91 ff 01 	lds	r24, 0x01FF
     af2:	83 fd       	sbrc	r24, 3
     af4:	07 c0       	rjmp	.+14     	; 0xb04 <disk_readp+0x26>
     af6:	39 e0       	ldi	r19, 0x09	; 9
     af8:	44 0f       	add	r20, r20
     afa:	55 1f       	adc	r21, r21
     afc:	66 1f       	adc	r22, r22
     afe:	77 1f       	adc	r23, r23
     b00:	3a 95       	dec	r19
     b02:	d1 f7       	brne	.-12     	; 0xaf8 <disk_readp+0x1a>

	res = RES_ERROR;
	if (send_cmd(CMD17, lba) == 0) {		/* READ_SINGLE_BLOCK */
     b04:	81 e5       	ldi	r24, 0x51	; 81
     b06:	0e 94 15 05 	call	0xa2a	; 0xa2a <send_cmd>
     b0a:	88 23       	and	r24, r24
     b0c:	09 f0       	breq	.+2      	; 0xb10 <disk_readp+0x32>
     b0e:	3a c0       	rjmp	.+116    	; 0xb84 <disk_readp+0xa6>
     b10:	80 e4       	ldi	r24, 0x40	; 64
     b12:	9c e9       	ldi	r25, 0x9C	; 156
/* ______________   _____________*/


/*    SPI*/
inline static unsigned char SPI_ReadByte_i(void){
   SPDR = 0xff;
     b14:	3f ef       	ldi	r19, 0xFF	; 255
     b16:	3f b9       	out	0x0f, r19	; 15
   while(!(SPSR & (1<<SPIF)));
     b18:	77 9b       	sbis	0x0e, 7	; 14
     b1a:	fe cf       	rjmp	.-4      	; 0xb18 <disk_readp+0x3a>
   return SPDR;   
     b1c:	2f b1       	in	r18, 0x0f	; 15

		bc = 40000;
		do {							/* Wait for data packet */
			rc = rcv_spi();
		} while (rc == 0xFF && --bc);
     b1e:	2f 3f       	cpi	r18, 0xFF	; 255
     b20:	19 f4       	brne	.+6      	; 0xb28 <disk_readp+0x4a>
     b22:	01 97       	sbiw	r24, 0x01	; 1
     b24:	c1 f7       	brne	.-16     	; 0xb16 <disk_readp+0x38>
     b26:	2e c0       	rjmp	.+92     	; 0xb84 <disk_readp+0xa6>

		if (rc == 0xFE) {				/* A data packet arrived */
     b28:	2e 3f       	cpi	r18, 0xFE	; 254
     b2a:	61 f5       	brne	.+88     	; 0xb84 <disk_readp+0xa6>
			bc = 514 - ofs - cnt;
     b2c:	22 27       	eor	r18, r18
     b2e:	33 27       	eor	r19, r19
     b30:	2c 1b       	sub	r18, r28
     b32:	3d 0b       	sbc	r19, r29
     b34:	2e 5f       	subi	r18, 0xFE	; 254
     b36:	3d 4f       	sbci	r19, 0xFD	; 253
     b38:	20 1b       	sub	r18, r16
     b3a:	31 0b       	sbc	r19, r17

			/* Skip leading bytes */
			if (ofs) {
     b3c:	20 97       	sbiw	r28, 0x00	; 0
     b3e:	39 f0       	breq	.+14     	; 0xb4e <disk_readp+0x70>
/* ______________   _____________*/


/*    SPI*/
inline static unsigned char SPI_ReadByte_i(void){
   SPDR = 0xff;
     b40:	8f ef       	ldi	r24, 0xFF	; 255
     b42:	8f b9       	out	0x0f, r24	; 15
   while(!(SPSR & (1<<SPIF)));
     b44:	77 9b       	sbis	0x0e, 7	; 14
     b46:	fe cf       	rjmp	.-4      	; 0xb44 <disk_readp+0x66>
   return SPDR;   
     b48:	9f b1       	in	r25, 0x0f	; 15
				do rcv_spi(); while (--ofs);
     b4a:	21 97       	sbiw	r28, 0x01	; 1
     b4c:	d1 f7       	brne	.-12     	; 0xb42 <disk_readp+0x64>
			}

			/* Receive a part of the sector */
			if (buff) {	/* Store data to the memory */
     b4e:	e1 14       	cp	r14, r1
     b50:	f1 04       	cpc	r15, r1
     b52:	71 f0       	breq	.+28     	; 0xb70 <disk_readp+0x92>
/* ______________   _____________*/


/*    SPI*/
inline static unsigned char SPI_ReadByte_i(void){
   SPDR = 0xff;
     b54:	9f ef       	ldi	r25, 0xFF	; 255
     b56:	9f b9       	out	0x0f, r25	; 15
   while(!(SPSR & (1<<SPIF)));
     b58:	77 9b       	sbis	0x0e, 7	; 14
     b5a:	fe cf       	rjmp	.-4      	; 0xb58 <disk_readp+0x7a>
   return SPDR;   
     b5c:	8f b1       	in	r24, 0x0f	; 15
				do {
					*buff++ = rcv_spi();
     b5e:	f7 01       	movw	r30, r14
     b60:	80 83       	st	Z, r24
				} while (--cnt);
     b62:	01 50       	subi	r16, 0x01	; 1
     b64:	10 40       	sbci	r17, 0x00	; 0
     b66:	21 f0       	breq	.+8      	; 0xb70 <disk_readp+0x92>
			}

			/* Receive a part of the sector */
			if (buff) {	/* Store data to the memory */
				do {
					*buff++ = rcv_spi();
     b68:	08 94       	sec
     b6a:	e1 1c       	adc	r14, r1
     b6c:	f1 1c       	adc	r15, r1
     b6e:	f3 cf       	rjmp	.-26     	; 0xb56 <disk_readp+0x78>
/* ______________   _____________*/


/*    SPI*/
inline static unsigned char SPI_ReadByte_i(void){
   SPDR = 0xff;
     b70:	8f ef       	ldi	r24, 0xFF	; 255
     b72:	8f b9       	out	0x0f, r24	; 15
   while(!(SPSR & (1<<SPIF)));
     b74:	77 9b       	sbis	0x0e, 7	; 14
     b76:	fe cf       	rjmp	.-4      	; 0xb74 <disk_readp+0x96>
   return SPDR;   
     b78:	9f b1       	in	r25, 0x0f	; 15
					FORWARD(rcv_spi());
				} while (--cnt);
			}

			/* Skip trailing bytes and CRC */
			do rcv_spi(); while (--bc);
     b7a:	21 50       	subi	r18, 0x01	; 1
     b7c:	30 40       	sbci	r19, 0x00	; 0
     b7e:	c9 f7       	brne	.-14     	; 0xb72 <disk_readp+0x94>
     b80:	90 e0       	ldi	r25, 0x00	; 0
     b82:	01 c0       	rjmp	.+2      	; 0xb86 <disk_readp+0xa8>
     b84:	91 e0       	ldi	r25, 0x01	; 1

			res = RES_OK;
		}
	}

	DESELECT();
     b86:	c4 9a       	sbi	0x18, 4	; 24
/* ______________   _____________*/


/*    SPI*/
inline static unsigned char SPI_ReadByte_i(void){
   SPDR = 0xff;
     b88:	8f ef       	ldi	r24, 0xFF	; 255
     b8a:	8f b9       	out	0x0f, r24	; 15
   while(!(SPSR & (1<<SPIF)));
     b8c:	77 9b       	sbis	0x0e, 7	; 14
     b8e:	fe cf       	rjmp	.-4      	; 0xb8c <disk_readp+0xae>
   return SPDR;   
     b90:	8f b1       	in	r24, 0x0f	; 15
	rcv_spi();

	return res;
}
     b92:	89 2f       	mov	r24, r25
     b94:	df 91       	pop	r29
     b96:	cf 91       	pop	r28
     b98:	1f 91       	pop	r17
     b9a:	0f 91       	pop	r16
     b9c:	ff 90       	pop	r15
     b9e:	ef 90       	pop	r14
     ba0:	08 95       	ret

00000ba2 <disk_writep>:
#if _USE_WRITE
DRESULT disk_writep (
	const BYTE *buff,	/* Pointer to the bytes to be written (NULL:Initiate/Finalize sector write) */
	DWORD sa			/* Number of bytes to send, Sector number (LBA) or zero */
)
{
     ba2:	fc 01       	movw	r30, r24
	WORD bc;
	static WORD wc;

	res = RES_ERROR;

	if (buff) {		/* Send data bytes */
     ba4:	00 97       	sbiw	r24, 0x00	; 0
     ba6:	f9 f0       	breq	.+62     	; 0xbe6 <disk_writep+0x44>
		bc = (WORD)sa;
     ba8:	20 91 fd 01 	lds	r18, 0x01FD
     bac:	30 91 fe 01 	lds	r19, 0x01FE
     bb0:	09 c0       	rjmp	.+18     	; 0xbc4 <disk_writep+0x22>
		while (bc && wc) {		/* Send data bytes to the card */
			xmit_spi(*buff++);
     bb2:	80 81       	ld	r24, Z
     bb4:	8f b9       	out	0x0f, r24	; 15
     bb6:	77 9b       	sbis	0x0e, 7	; 14
     bb8:	fe cf       	rjmp	.-4      	; 0xbb6 <disk_writep+0x14>
     bba:	31 96       	adiw	r30, 0x01	; 1
			wc--; bc--;
     bbc:	41 50       	subi	r20, 0x01	; 1
     bbe:	50 40       	sbci	r21, 0x00	; 0
     bc0:	21 50       	subi	r18, 0x01	; 1
     bc2:	30 40       	sbci	r19, 0x00	; 0

	res = RES_ERROR;

	if (buff) {		/* Send data bytes */
		bc = (WORD)sa;
		while (bc && wc) {		/* Send data bytes to the card */
     bc4:	41 15       	cp	r20, r1
     bc6:	51 05       	cpc	r21, r1
     bc8:	29 f4       	brne	.+10     	; 0xbd4 <disk_writep+0x32>
     bca:	30 93 fe 01 	sts	0x01FE, r19
     bce:	20 93 fd 01 	sts	0x01FD, r18
     bd2:	07 c0       	rjmp	.+14     	; 0xbe2 <disk_writep+0x40>
     bd4:	21 15       	cp	r18, r1
     bd6:	31 05       	cpc	r19, r1
     bd8:	61 f7       	brne	.-40     	; 0xbb2 <disk_writep+0x10>
     bda:	10 92 fe 01 	sts	0x01FE, r1
     bde:	10 92 fd 01 	sts	0x01FD, r1
     be2:	90 e0       	ldi	r25, 0x00	; 0
     be4:	59 c0       	rjmp	.+178    	; 0xc98 <disk_writep+0xf6>
			xmit_spi(*buff++);
			wc--; bc--;
		}
		res = RES_OK;
	} else {
		if (sa) {	/* Initiate sector write process */
     be6:	41 15       	cp	r20, r1
     be8:	51 05       	cpc	r21, r1
     bea:	61 05       	cpc	r22, r1
     bec:	71 05       	cpc	r23, r1
     bee:	09 f1       	breq	.+66     	; 0xc32 <disk_writep+0x90>
			if (!(CardType & CT_BLOCK)) sa *= 512;	/* Convert to byte address if needed */
     bf0:	80 91 ff 01 	lds	r24, 0x01FF
     bf4:	83 fd       	sbrc	r24, 3
     bf6:	07 c0       	rjmp	.+14     	; 0xc06 <disk_writep+0x64>
     bf8:	e9 e0       	ldi	r30, 0x09	; 9
     bfa:	44 0f       	add	r20, r20
     bfc:	55 1f       	adc	r21, r21
     bfe:	66 1f       	adc	r22, r22
     c00:	77 1f       	adc	r23, r23
     c02:	ea 95       	dec	r30
     c04:	d1 f7       	brne	.-12     	; 0xbfa <disk_writep+0x58>
			if (send_cmd(CMD24, sa) == 0) {			/* WRITE_SINGLE_BLOCK */
     c06:	88 e5       	ldi	r24, 0x58	; 88
     c08:	0e 94 15 05 	call	0xa2a	; 0xa2a <send_cmd>
     c0c:	88 23       	and	r24, r24
     c0e:	11 f0       	breq	.+4      	; 0xc14 <disk_writep+0x72>
     c10:	91 e0       	ldi	r25, 0x01	; 1
     c12:	42 c0       	rjmp	.+132    	; 0xc98 <disk_writep+0xf6>
				xmit_spi(0xFF); xmit_spi(0xFE);		/* Data block header */
     c14:	8f ef       	ldi	r24, 0xFF	; 255
     c16:	8f b9       	out	0x0f, r24	; 15
     c18:	77 9b       	sbis	0x0e, 7	; 14
     c1a:	fe cf       	rjmp	.-4      	; 0xc18 <disk_writep+0x76>
     c1c:	8e ef       	ldi	r24, 0xFE	; 254
     c1e:	8f b9       	out	0x0f, r24	; 15
     c20:	77 9b       	sbis	0x0e, 7	; 14
     c22:	fe cf       	rjmp	.-4      	; 0xc20 <disk_writep+0x7e>
				wc = 512;							/* Set byte counter */
     c24:	80 e0       	ldi	r24, 0x00	; 0
     c26:	92 e0       	ldi	r25, 0x02	; 2
     c28:	90 93 fe 01 	sts	0x01FE, r25
     c2c:	80 93 fd 01 	sts	0x01FD, r24
     c30:	d8 cf       	rjmp	.-80     	; 0xbe2 <disk_writep+0x40>
				res = RES_OK;
			}
		} else {	/* Finalize sector write process */
			bc = wc + 2;
     c32:	80 91 fd 01 	lds	r24, 0x01FD
     c36:	90 91 fe 01 	lds	r25, 0x01FE
     c3a:	02 96       	adiw	r24, 0x02	; 2
     c3c:	04 c0       	rjmp	.+8      	; 0xc46 <disk_writep+0xa4>
			while (bc--) xmit_spi(0);	/* Fill left bytes and CRC with zeros */
     c3e:	1f b8       	out	0x0f, r1	; 15
     c40:	77 9b       	sbis	0x0e, 7	; 14
     c42:	fe cf       	rjmp	.-4      	; 0xc40 <disk_writep+0x9e>
     c44:	01 97       	sbiw	r24, 0x01	; 1
     c46:	00 97       	sbiw	r24, 0x00	; 0
     c48:	d1 f7       	brne	.-12     	; 0xc3e <disk_writep+0x9c>
/* ______________   _____________*/


/*    SPI*/
inline static unsigned char SPI_ReadByte_i(void){
   SPDR = 0xff;
     c4a:	8f ef       	ldi	r24, 0xFF	; 255
     c4c:	8f b9       	out	0x0f, r24	; 15
   while(!(SPSR & (1<<SPIF)));
     c4e:	77 9b       	sbis	0x0e, 7	; 14
     c50:	fe cf       	rjmp	.-4      	; 0xc4e <disk_writep+0xac>
   return SPDR;   
     c52:	8f b1       	in	r24, 0x0f	; 15
			if ((rcv_spi() & 0x1F) == 0x05) {	/* Receive data resp and wait for end of write process in timeout of 500ms */
     c54:	8f 71       	andi	r24, 0x1F	; 31
     c56:	85 30       	cpi	r24, 0x05	; 5
     c58:	c1 f4       	brne	.+48     	; 0xc8a <disk_writep+0xe8>
     c5a:	28 e8       	ldi	r18, 0x88	; 136
     c5c:	33 e1       	ldi	r19, 0x13	; 19
/* ______________   _____________*/


/*    SPI*/
inline static unsigned char SPI_ReadByte_i(void){
   SPDR = 0xff;
     c5e:	6f ef       	ldi	r22, 0xFF	; 255
     c60:	40 e9       	ldi	r20, 0x90	; 144
     c62:	51 e0       	ldi	r21, 0x01	; 1
     c64:	05 c0       	rjmp	.+10     	; 0xc70 <disk_writep+0xce>
     c66:	ca 01       	movw	r24, r20
     c68:	01 97       	sbiw	r24, 0x01	; 1
     c6a:	f1 f7       	brne	.-4      	; 0xc68 <disk_writep+0xc6>
				for (bc = 5000; rcv_spi() != 0xFF && bc; bc--) dly_100us();	/* Wait ready */
     c6c:	21 50       	subi	r18, 0x01	; 1
     c6e:	30 40       	sbci	r19, 0x00	; 0
     c70:	6f b9       	out	0x0f, r22	; 15
   while(!(SPSR & (1<<SPIF)));
     c72:	77 9b       	sbis	0x0e, 7	; 14
     c74:	fe cf       	rjmp	.-4      	; 0xc72 <disk_writep+0xd0>
   return SPDR;   
     c76:	8f b1       	in	r24, 0x0f	; 15
     c78:	8f 3f       	cpi	r24, 0xFF	; 255
     c7a:	21 f0       	breq	.+8      	; 0xc84 <disk_writep+0xe2>
     c7c:	21 15       	cp	r18, r1
     c7e:	31 05       	cpc	r19, r1
     c80:	91 f7       	brne	.-28     	; 0xc66 <disk_writep+0xc4>
     c82:	03 c0       	rjmp	.+6      	; 0xc8a <disk_writep+0xe8>
     c84:	90 e0       	ldi	r25, 0x00	; 0
     c86:	23 2b       	or	r18, r19
     c88:	09 f4       	brne	.+2      	; 0xc8c <disk_writep+0xea>
     c8a:	91 e0       	ldi	r25, 0x01	; 1
				if (bc) res = RES_OK;
			}
			DESELECT();
     c8c:	c4 9a       	sbi	0x18, 4	; 24
/* ______________   _____________*/


/*    SPI*/
inline static unsigned char SPI_ReadByte_i(void){
   SPDR = 0xff;
     c8e:	8f ef       	ldi	r24, 0xFF	; 255
     c90:	8f b9       	out	0x0f, r24	; 15
   while(!(SPSR & (1<<SPIF)));
     c92:	77 9b       	sbis	0x0e, 7	; 14
     c94:	fe cf       	rjmp	.-4      	; 0xc92 <disk_writep+0xf0>
   return SPDR;   
     c96:	8f b1       	in	r24, 0x0f	; 15
			rcv_spi();
		}
	}

	return res;
}
     c98:	89 2f       	mov	r24, r25
     c9a:	08 95       	ret

00000c9c <disk_initialize>:
/*-----------------------------------------------------------------------*/
/* Initialize Disk Drive                                                 */
/*-----------------------------------------------------------------------*/

DSTATUS disk_initialize (void)
{
     c9c:	af 92       	push	r10
     c9e:	bf 92       	push	r11
     ca0:	cf 92       	push	r12
     ca2:	df 92       	push	r13
     ca4:	ef 92       	push	r14
     ca6:	ff 92       	push	r15
     ca8:	0f 93       	push	r16
     caa:	1f 93       	push	r17
     cac:	df 93       	push	r29
     cae:	cf 93       	push	r28
     cb0:	00 d0       	rcall	.+0      	; 0xcb2 <disk_initialize+0x16>
     cb2:	00 d0       	rcall	.+0      	; 0xcb4 <disk_initialize+0x18>
     cb4:	cd b7       	in	r28, 0x3d	; 61
     cb6:	de b7       	in	r29, 0x3e	; 62
	BYTE n, cmd, ty, ocr[4];
	UINT tmr;

#if _USE_WRITE
	if (CardType && MMC_SEL) disk_writep(0, 0);	/* Finalize write process if it is in progress */
     cb8:	80 91 ff 01 	lds	r24, 0x01FF
     cbc:	88 23       	and	r24, r24
     cbe:	51 f0       	breq	.+20     	; 0xcd4 <disk_initialize+0x38>
     cc0:	c4 99       	sbic	0x18, 4	; 24
     cc2:	08 c0       	rjmp	.+16     	; 0xcd4 <disk_initialize+0x38>
     cc4:	80 e0       	ldi	r24, 0x00	; 0
     cc6:	90 e0       	ldi	r25, 0x00	; 0
     cc8:	40 e0       	ldi	r20, 0x00	; 0
     cca:	50 e0       	ldi	r21, 0x00	; 0
     ccc:	60 e0       	ldi	r22, 0x00	; 0
     cce:	70 e0       	ldi	r23, 0x00	; 0
     cd0:	0e 94 d1 05 	call	0xba2	; 0xba2 <disk_writep>
#endif
	init_spi();		/* Initialize ports to control MMC */
     cd4:	0e 94 02 11 	call	0x2204	; 0x2204 <SPI_Init>
	DESELECT();
     cd8:	c4 9a       	sbi	0x18, 4	; 24
     cda:	8a e0       	ldi	r24, 0x0A	; 10
/* ______________   _____________*/


/*    SPI*/
inline static unsigned char SPI_ReadByte_i(void){
   SPDR = 0xff;
     cdc:	9f ef       	ldi	r25, 0xFF	; 255
     cde:	9f b9       	out	0x0f, r25	; 15
   while(!(SPSR & (1<<SPIF)));
     ce0:	77 9b       	sbis	0x0e, 7	; 14
     ce2:	fe cf       	rjmp	.-4      	; 0xce0 <disk_initialize+0x44>
   return SPDR;   
     ce4:	2f b1       	in	r18, 0x0f	; 15
	for (n = 10; n; n--){
     ce6:	81 50       	subi	r24, 0x01	; 1
     ce8:	d1 f7       	brne	.-12     	; 0xcde <disk_initialize+0x42>
		rcv_spi();	/* 80 dummy clocks with CS=H */
	}

	ty = 0;
	if (send_cmd(CMD0, 0) == 1) {			/* Enter Idle state */
     cea:	80 e4       	ldi	r24, 0x40	; 64
     cec:	40 e0       	ldi	r20, 0x00	; 0
     cee:	50 e0       	ldi	r21, 0x00	; 0
     cf0:	60 e0       	ldi	r22, 0x00	; 0
     cf2:	70 e0       	ldi	r23, 0x00	; 0
     cf4:	0e 94 15 05 	call	0xa2a	; 0xa2a <send_cmd>
     cf8:	81 30       	cpi	r24, 0x01	; 1
     cfa:	09 f0       	breq	.+2      	; 0xcfe <disk_initialize+0x62>
     cfc:	7a c0       	rjmp	.+244    	; 0xdf2 <disk_initialize+0x156>
		if (send_cmd(CMD8, 0x1AA) == 1) {	/* SDv2 */
     cfe:	88 e4       	ldi	r24, 0x48	; 72
     d00:	4a ea       	ldi	r20, 0xAA	; 170
     d02:	51 e0       	ldi	r21, 0x01	; 1
     d04:	60 e0       	ldi	r22, 0x00	; 0
     d06:	70 e0       	ldi	r23, 0x00	; 0
     d08:	0e 94 15 05 	call	0xa2a	; 0xa2a <send_cmd>
     d0c:	81 30       	cpi	r24, 0x01	; 1
     d0e:	09 f0       	breq	.+2      	; 0xd12 <disk_initialize+0x76>
     d10:	47 c0       	rjmp	.+142    	; 0xda0 <disk_initialize+0x104>
     d12:	6e 01       	movw	r12, r28
     d14:	08 94       	sec
     d16:	c1 1c       	adc	r12, r1
     d18:	d1 1c       	adc	r13, r1
     d1a:	76 01       	movw	r14, r12
/* ______________   _____________*/


/*    SPI*/
inline static unsigned char SPI_ReadByte_i(void){
   SPDR = 0xff;
     d1c:	9f ef       	ldi	r25, 0xFF	; 255
			for (n = 0; n < 4; n++) ocr[n] = rcv_spi();		/* Get trailing return value of R7 resp */
     d1e:	9e 01       	movw	r18, r28
     d20:	2b 5f       	subi	r18, 0xFB	; 251
     d22:	3f 4f       	sbci	r19, 0xFF	; 255
     d24:	9f b9       	out	0x0f, r25	; 15
   while(!(SPSR & (1<<SPIF)));
     d26:	77 9b       	sbis	0x0e, 7	; 14
     d28:	fe cf       	rjmp	.-4      	; 0xd26 <disk_initialize+0x8a>
   return SPDR;   
     d2a:	8f b1       	in	r24, 0x0f	; 15
     d2c:	f7 01       	movw	r30, r14
     d2e:	81 93       	st	Z+, r24
     d30:	7f 01       	movw	r14, r30
     d32:	e2 17       	cp	r30, r18
     d34:	f3 07       	cpc	r31, r19
     d36:	b1 f7       	brne	.-20     	; 0xd24 <disk_initialize+0x88>
			if (ocr[2] == 0x01 && ocr[3] == 0xAA) {			/* The card can work at vdd range of 2.7-3.6V */
     d38:	8b 81       	ldd	r24, Y+3	; 0x03
     d3a:	81 30       	cpi	r24, 0x01	; 1
     d3c:	09 f0       	breq	.+2      	; 0xd40 <disk_initialize+0xa4>
     d3e:	59 c0       	rjmp	.+178    	; 0xdf2 <disk_initialize+0x156>
     d40:	8c 81       	ldd	r24, Y+4	; 0x04
     d42:	8a 3a       	cpi	r24, 0xAA	; 170
     d44:	09 f0       	breq	.+2      	; 0xd48 <disk_initialize+0xac>
     d46:	55 c0       	rjmp	.+170    	; 0xdf2 <disk_initialize+0x156>
     d48:	00 e1       	ldi	r16, 0x10	; 16
     d4a:	17 e2       	ldi	r17, 0x27	; 39
     d4c:	90 e9       	ldi	r25, 0x90	; 144
     d4e:	a9 2e       	mov	r10, r25
     d50:	91 e0       	ldi	r25, 0x01	; 1
     d52:	b9 2e       	mov	r11, r25
     d54:	07 c0       	rjmp	.+14     	; 0xd64 <disk_initialize+0xc8>
     d56:	c5 01       	movw	r24, r10
     d58:	01 97       	sbiw	r24, 0x01	; 1
     d5a:	f1 f7       	brne	.-4      	; 0xd58 <disk_initialize+0xbc>
				for (tmr = 10000; tmr && send_cmd(ACMD41, 1UL << 30); tmr--) dly_100us();	/* Wait for leaving idle state (ACMD41 with HCS bit) */
     d5c:	01 50       	subi	r16, 0x01	; 1
     d5e:	10 40       	sbci	r17, 0x00	; 0
     d60:	09 f4       	brne	.+2      	; 0xd64 <disk_initialize+0xc8>
     d62:	47 c0       	rjmp	.+142    	; 0xdf2 <disk_initialize+0x156>
     d64:	89 ee       	ldi	r24, 0xE9	; 233
     d66:	40 e0       	ldi	r20, 0x00	; 0
     d68:	50 e0       	ldi	r21, 0x00	; 0
     d6a:	60 e0       	ldi	r22, 0x00	; 0
     d6c:	70 e4       	ldi	r23, 0x40	; 64
     d6e:	0e 94 15 05 	call	0xa2a	; 0xa2a <send_cmd>
     d72:	88 23       	and	r24, r24
     d74:	81 f7       	brne	.-32     	; 0xd56 <disk_initialize+0xba>
     d76:	59 c0       	rjmp	.+178    	; 0xe2a <disk_initialize+0x18e>
/* ______________   _____________*/


/*    SPI*/
inline static unsigned char SPI_ReadByte_i(void){
   SPDR = 0xff;
     d78:	9f ef       	ldi	r25, 0xFF	; 255
     d7a:	9f b9       	out	0x0f, r25	; 15
   while(!(SPSR & (1<<SPIF)));
     d7c:	77 9b       	sbis	0x0e, 7	; 14
     d7e:	fe cf       	rjmp	.-4      	; 0xd7c <disk_initialize+0xe0>
   return SPDR;   
     d80:	8f b1       	in	r24, 0x0f	; 15
				if (tmr && send_cmd(CMD58, 0) == 0) {		/* Check CCS bit in the OCR */
					for (n = 0; n < 4; n++) ocr[n] = rcv_spi();
     d82:	f6 01       	movw	r30, r12
     d84:	81 93       	st	Z+, r24
     d86:	6f 01       	movw	r12, r30
     d88:	ee 15       	cp	r30, r14
     d8a:	ff 05       	cpc	r31, r15
     d8c:	b1 f7       	brne	.-20     	; 0xd7a <disk_initialize+0xde>
					ty = (ocr[0] & 0x40) ? CT_SD2 | CT_BLOCK : CT_SD2;	/* SDv2 (HC or SC) */
     d8e:	89 81       	ldd	r24, Y+1	; 0x01
     d90:	86 fd       	sbrc	r24, 6
     d92:	03 c0       	rjmp	.+6      	; 0xd9a <disk_initialize+0xfe>
     d94:	84 e0       	ldi	r24, 0x04	; 4
     d96:	f8 2e       	mov	r15, r24
     d98:	2d c0       	rjmp	.+90     	; 0xdf4 <disk_initialize+0x158>
     d9a:	0c e0       	ldi	r16, 0x0C	; 12
     d9c:	f0 2e       	mov	r15, r16
     d9e:	2a c0       	rjmp	.+84     	; 0xdf4 <disk_initialize+0x158>
				}
			}
		} else {							/* SDv1 or MMCv3 */
			if (send_cmd(ACMD41, 0) <= 1) 	{
     da0:	89 ee       	ldi	r24, 0xE9	; 233
     da2:	40 e0       	ldi	r20, 0x00	; 0
     da4:	50 e0       	ldi	r21, 0x00	; 0
     da6:	60 e0       	ldi	r22, 0x00	; 0
     da8:	70 e0       	ldi	r23, 0x00	; 0
     daa:	0e 94 15 05 	call	0xa2a	; 0xa2a <send_cmd>
     dae:	82 30       	cpi	r24, 0x02	; 2
     db0:	28 f0       	brcs	.+10     	; 0xdbc <disk_initialize+0x120>
     db2:	11 e4       	ldi	r17, 0x41	; 65
     db4:	e1 2e       	mov	r14, r17
     db6:	ff 24       	eor	r15, r15
     db8:	f3 94       	inc	r15
     dba:	04 c0       	rjmp	.+8      	; 0xdc4 <disk_initialize+0x128>
     dbc:	b9 ee       	ldi	r27, 0xE9	; 233
     dbe:	eb 2e       	mov	r14, r27
     dc0:	a2 e0       	ldi	r26, 0x02	; 2
     dc2:	fa 2e       	mov	r15, r26
     dc4:	00 e1       	ldi	r16, 0x10	; 16
     dc6:	17 e2       	ldi	r17, 0x27	; 39
     dc8:	f0 e9       	ldi	r31, 0x90	; 144
     dca:	cf 2e       	mov	r12, r31
     dcc:	f1 e0       	ldi	r31, 0x01	; 1
     dce:	df 2e       	mov	r13, r31
     dd0:	06 c0       	rjmp	.+12     	; 0xdde <disk_initialize+0x142>
     dd2:	c6 01       	movw	r24, r12
     dd4:	01 97       	sbiw	r24, 0x01	; 1
     dd6:	f1 f7       	brne	.-4      	; 0xdd4 <disk_initialize+0x138>
				ty = CT_SD1; cmd = ACMD41;	/* SDv1 */
			} else {
				ty = CT_MMC; cmd = CMD1;	/* MMCv3 */
			}
			for (tmr = 10000; tmr && send_cmd(cmd, 0); tmr--) dly_100us();	/* Wait for leaving idle state */
     dd8:	01 50       	subi	r16, 0x01	; 1
     dda:	10 40       	sbci	r17, 0x00	; 0
     ddc:	51 f0       	breq	.+20     	; 0xdf2 <disk_initialize+0x156>
     dde:	8e 2d       	mov	r24, r14
     de0:	40 e0       	ldi	r20, 0x00	; 0
     de2:	50 e0       	ldi	r21, 0x00	; 0
     de4:	60 e0       	ldi	r22, 0x00	; 0
     de6:	70 e0       	ldi	r23, 0x00	; 0
     de8:	0e 94 15 05 	call	0xa2a	; 0xa2a <send_cmd>
     dec:	88 23       	and	r24, r24
     dee:	89 f7       	brne	.-30     	; 0xdd2 <disk_initialize+0x136>
     df0:	27 c0       	rjmp	.+78     	; 0xe40 <disk_initialize+0x1a4>
     df2:	ff 24       	eor	r15, r15
			if (!tmr || send_cmd(CMD16, 512) != 0)			/* Set R/W block length to 512 */
				ty = 0;
		}
	}
	CardType = ty;
     df4:	f0 92 ff 01 	sts	0x01FF, r15
	DESELECT();
     df8:	c4 9a       	sbi	0x18, 4	; 24
/* ______________   _____________*/


/*    SPI*/
inline static unsigned char SPI_ReadByte_i(void){
   SPDR = 0xff;
     dfa:	8f ef       	ldi	r24, 0xFF	; 255
     dfc:	8f b9       	out	0x0f, r24	; 15
   while(!(SPSR & (1<<SPIF)));
     dfe:	77 9b       	sbis	0x0e, 7	; 14
     e00:	fe cf       	rjmp	.-4      	; 0xdfe <disk_initialize+0x162>
   return SPDR;   
     e02:	8f b1       	in	r24, 0x0f	; 15
     e04:	80 e0       	ldi	r24, 0x00	; 0
     e06:	ff 20       	and	r15, r15
     e08:	09 f4       	brne	.+2      	; 0xe0c <disk_initialize+0x170>
     e0a:	81 e0       	ldi	r24, 0x01	; 1
	rcv_spi();

	return ty ? 0 : STA_NOINIT;
}
     e0c:	0f 90       	pop	r0
     e0e:	0f 90       	pop	r0
     e10:	0f 90       	pop	r0
     e12:	0f 90       	pop	r0
     e14:	cf 91       	pop	r28
     e16:	df 91       	pop	r29
     e18:	1f 91       	pop	r17
     e1a:	0f 91       	pop	r16
     e1c:	ff 90       	pop	r15
     e1e:	ef 90       	pop	r14
     e20:	df 90       	pop	r13
     e22:	cf 90       	pop	r12
     e24:	bf 90       	pop	r11
     e26:	af 90       	pop	r10
     e28:	08 95       	ret
	if (send_cmd(CMD0, 0) == 1) {			/* Enter Idle state */
		if (send_cmd(CMD8, 0x1AA) == 1) {	/* SDv2 */
			for (n = 0; n < 4; n++) ocr[n] = rcv_spi();		/* Get trailing return value of R7 resp */
			if (ocr[2] == 0x01 && ocr[3] == 0xAA) {			/* The card can work at vdd range of 2.7-3.6V */
				for (tmr = 10000; tmr && send_cmd(ACMD41, 1UL << 30); tmr--) dly_100us();	/* Wait for leaving idle state (ACMD41 with HCS bit) */
				if (tmr && send_cmd(CMD58, 0) == 0) {		/* Check CCS bit in the OCR */
     e2a:	8a e7       	ldi	r24, 0x7A	; 122
     e2c:	40 e0       	ldi	r20, 0x00	; 0
     e2e:	50 e0       	ldi	r21, 0x00	; 0
     e30:	60 e0       	ldi	r22, 0x00	; 0
     e32:	70 e0       	ldi	r23, 0x00	; 0
     e34:	0e 94 15 05 	call	0xa2a	; 0xa2a <send_cmd>
     e38:	88 23       	and	r24, r24
     e3a:	09 f4       	brne	.+2      	; 0xe3e <disk_initialize+0x1a2>
     e3c:	9d cf       	rjmp	.-198    	; 0xd78 <disk_initialize+0xdc>
     e3e:	d9 cf       	rjmp	.-78     	; 0xdf2 <disk_initialize+0x156>
				ty = CT_SD1; cmd = ACMD41;	/* SDv1 */
			} else {
				ty = CT_MMC; cmd = CMD1;	/* MMCv3 */
			}
			for (tmr = 10000; tmr && send_cmd(cmd, 0); tmr--) dly_100us();	/* Wait for leaving idle state */
			if (!tmr || send_cmd(CMD16, 512) != 0)			/* Set R/W block length to 512 */
     e40:	80 e5       	ldi	r24, 0x50	; 80
     e42:	40 e0       	ldi	r20, 0x00	; 0
     e44:	52 e0       	ldi	r21, 0x02	; 2
     e46:	60 e0       	ldi	r22, 0x00	; 0
     e48:	70 e0       	ldi	r23, 0x00	; 0
     e4a:	0e 94 15 05 	call	0xa2a	; 0xa2a <send_cmd>
     e4e:	88 23       	and	r24, r24
     e50:	81 f6       	brne	.-96     	; 0xdf2 <disk_initialize+0x156>
     e52:	d0 cf       	rjmp	.-96     	; 0xdf4 <disk_initialize+0x158>

00000e54 <ds1307_dec2bcd>:
    i2c_init();
    _delay_us(10);
}

unsigned char ds1307_dec2bcd(unsigned char val)
{
     e54:	28 2f       	mov	r18, r24
     e56:	6a e0       	ldi	r22, 0x0A	; 10
     e58:	0e 94 48 18 	call	0x3090	; 0x3090 <__udivmodqi4>
     e5c:	96 e0       	ldi	r25, 0x06	; 6
     e5e:	89 9f       	mul	r24, r25
     e60:	c0 01       	movw	r24, r0
     e62:	11 24       	eor	r1, r1
    return val + 6 * (val / 10);
}
     e64:	82 0f       	add	r24, r18
     e66:	08 95       	ret

00000e68 <ds1307_getdayofweek>:
        ++days;
    return days + 365 * y + (y+3) / 4 - 1;
}

unsigned char ds1307_getdayofweek(unsigned char y, unsigned char m, unsigned char d)
{
     e68:	28 2f       	mov	r18, r24
    return val - 6 * (val>>4);
}

static unsigned char ds1307_date2days(unsigned char y, unsigned char m, unsigned char d)
{
int days = d;
     e6a:	50 e0       	ldi	r21, 0x00	; 0
     e6c:	e4 e5       	ldi	r30, 0x54	; 84
     e6e:	f0 e0       	ldi	r31, 0x00	; 0
     e70:	91 e0       	ldi	r25, 0x01	; 1
     e72:	05 c0       	rjmp	.+10     	; 0xe7e <ds1307_getdayofweek+0x16>
unsigned char i;

    for( i = 1; i < m; ++i )
        days += pgm_read_byte(ds1307_daysinmonth + i -1);
     e74:	84 91       	lpm	r24, Z+
     e76:	48 0f       	add	r20, r24
     e78:	51 1d       	adc	r21, r1
static unsigned char ds1307_date2days(unsigned char y, unsigned char m, unsigned char d)
{
int days = d;
unsigned char i;

    for( i = 1; i < m; ++i )
     e7a:	9f 5f       	subi	r25, 0xFF	; 255
     e7c:	31 96       	adiw	r30, 0x01	; 1
     e7e:	96 17       	cp	r25, r22
     e80:	c8 f3       	brcs	.-14     	; 0xe74 <ds1307_getdayofweek+0xc>
        days += pgm_read_byte(ds1307_daysinmonth + i -1);
    if(m > 2 && y % 4 == 0)
     e82:	63 30       	cpi	r22, 0x03	; 3
     e84:	40 f0       	brcs	.+16     	; 0xe96 <ds1307_getdayofweek+0x2e>
     e86:	82 2f       	mov	r24, r18
     e88:	90 e0       	ldi	r25, 0x00	; 0
     e8a:	83 70       	andi	r24, 0x03	; 3
     e8c:	90 70       	andi	r25, 0x00	; 0
     e8e:	89 2b       	or	r24, r25
     e90:	11 f4       	brne	.+4      	; 0xe96 <ds1307_getdayofweek+0x2e>
        ++days;
     e92:	4f 5f       	subi	r20, 0xFF	; 255
     e94:	5f 4f       	sbci	r21, 0xFF	; 255
    return days + 365 * y + (y+3) / 4 - 1;
     e96:	30 e0       	ldi	r19, 0x00	; 0
     e98:	8d e6       	ldi	r24, 0x6D	; 109
     e9a:	91 e0       	ldi	r25, 0x01	; 1
     e9c:	bc 01       	movw	r22, r24
     e9e:	26 9f       	mul	r18, r22
     ea0:	c0 01       	movw	r24, r0
     ea2:	27 9f       	mul	r18, r23
     ea4:	90 0d       	add	r25, r0
     ea6:	36 9f       	mul	r19, r22
     ea8:	90 0d       	add	r25, r0
     eaa:	11 24       	eor	r1, r1
     eac:	81 50       	subi	r24, 0x01	; 1
     eae:	2d 5f       	subi	r18, 0xFD	; 253
     eb0:	3f 4f       	sbci	r19, 0xFF	; 255
     eb2:	35 95       	asr	r19
     eb4:	27 95       	ror	r18
     eb6:	35 95       	asr	r19
     eb8:	27 95       	ror	r18
     eba:	82 0f       	add	r24, r18
     ebc:	84 0f       	add	r24, r20
     ebe:	90 e0       	ldi	r25, 0x00	; 0
     ec0:	06 96       	adiw	r24, 0x06	; 6
     ec2:	67 e0       	ldi	r22, 0x07	; 7
     ec4:	70 e0       	ldi	r23, 0x00	; 0
     ec6:	0e 94 54 18 	call	0x30a8	; 0x30a8 <__divmodhi4>

unsigned char ds1307_getdayofweek(unsigned char y, unsigned char m, unsigned char d)
{
    int day = ds1307_date2days(y,m,d);
    return (day + 6) % 7;
}
     eca:	08 95       	ret

00000ecc <ds1307_setdate>:

unsigned char ds1307_setdate(unsigned char year, unsigned char month, unsigned char day, unsigned char hour, unsigned char minute, unsigned char second)
{
     ecc:	bf 92       	push	r11
     ece:	cf 92       	push	r12
     ed0:	df 92       	push	r13
     ed2:	ef 92       	push	r14
     ed4:	ff 92       	push	r15
     ed6:	0f 93       	push	r16
     ed8:	1f 93       	push	r17
     eda:	d8 2e       	mov	r13, r24
     edc:	f6 2e       	mov	r15, r22
     ede:	14 2f       	mov	r17, r20
     ee0:	b2 2e       	mov	r11, r18
     ee2:	c0 2e       	mov	r12, r16
     ee4:	0e 2d       	mov	r16, r14
	//sanitize data
	if (second < 0 || second > 59 ||
     ee6:	0c 33       	cpi	r16, 0x3C	; 60
     ee8:	08 f0       	brcs	.+2      	; 0xeec <ds1307_setdate+0x20>
     eea:	56 c0       	rjmp	.+172    	; 0xf98 <ds1307_setdate+0xcc>
     eec:	8b e3       	ldi	r24, 0x3B	; 59
     eee:	8c 15       	cp	r24, r12
     ef0:	08 f4       	brcc	.+2      	; 0xef4 <ds1307_setdate+0x28>
     ef2:	52 c0       	rjmp	.+164    	; 0xf98 <ds1307_setdate+0xcc>
     ef4:	87 e1       	ldi	r24, 0x17	; 23
     ef6:	82 17       	cp	r24, r18
     ef8:	08 f4       	brcc	.+2      	; 0xefc <ds1307_setdate+0x30>
     efa:	4e c0       	rjmp	.+156    	; 0xf98 <ds1307_setdate+0xcc>
     efc:	44 23       	and	r20, r20
     efe:	09 f4       	brne	.+2      	; 0xf02 <ds1307_setdate+0x36>
     f00:	4b c0       	rjmp	.+150    	; 0xf98 <ds1307_setdate+0xcc>
     f02:	40 32       	cpi	r20, 0x20	; 32
     f04:	08 f0       	brcs	.+2      	; 0xf08 <ds1307_setdate+0x3c>
     f06:	48 c0       	rjmp	.+144    	; 0xf98 <ds1307_setdate+0xcc>
     f08:	66 23       	and	r22, r22
     f0a:	09 f4       	brne	.+2      	; 0xf0e <ds1307_setdate+0x42>
     f0c:	45 c0       	rjmp	.+138    	; 0xf98 <ds1307_setdate+0xcc>
     f0e:	8c e0       	ldi	r24, 0x0C	; 12
     f10:	86 17       	cp	r24, r22
     f12:	08 f4       	brcc	.+2      	; 0xf16 <ds1307_setdate+0x4a>
     f14:	41 c0       	rjmp	.+130    	; 0xf98 <ds1307_setdate+0xcc>
     f16:	83 e6       	ldi	r24, 0x63	; 99
     f18:	8d 15       	cp	r24, r13
     f1a:	08 f4       	brcc	.+2      	; 0xf1e <ds1307_setdate+0x52>
     f1c:	3d c0       	rjmp	.+122    	; 0xf98 <ds1307_setdate+0xcc>
		month < 1 || month > 12 ||
		year < 0 || year > 99)
		return 8;

	//sanitize day based on month
	if(day > pgm_read_byte(ds1307_daysinmonth + month - 1))
     f1e:	e6 2f       	mov	r30, r22
     f20:	f0 e0       	ldi	r31, 0x00	; 0
     f22:	ed 5a       	subi	r30, 0xAD	; 173
     f24:	ff 4f       	sbci	r31, 0xFF	; 255
     f26:	e4 91       	lpm	r30, Z+
     f28:	e4 17       	cp	r30, r20
     f2a:	10 f4       	brcc	.+4      	; 0xf30 <ds1307_setdate+0x64>
     f2c:	80 e0       	ldi	r24, 0x00	; 0
     f2e:	35 c0       	rjmp	.+106    	; 0xf9a <ds1307_setdate+0xce>
		return 0;

	//get day of week
    unsigned char dayofweek = ds1307_getdayofweek(year, month, day);
     f30:	8d 2d       	mov	r24, r13
     f32:	0e 94 34 07 	call	0xe68	; 0xe68 <ds1307_getdayofweek>
     f36:	e8 2e       	mov	r14, r24

	//write date
	i2c_start_wait(DS1307_ADDR | I2C_W);
     f38:	80 ed       	ldi	r24, 0xD0	; 208
     f3a:	0e 94 77 11 	call	0x22ee	; 0x22ee <i2c_start_wait>
	i2c_wrt(0x00);//stop oscillator
     f3e:	80 e0       	ldi	r24, 0x00	; 0
     f40:	0e 94 98 11 	call	0x2330	; 0x2330 <i2c_wrt>
	i2c_wrt(ds1307_dec2bcd(second));
     f44:	80 2f       	mov	r24, r16
     f46:	0e 94 2a 07 	call	0xe54	; 0xe54 <ds1307_dec2bcd>
     f4a:	0e 94 98 11 	call	0x2330	; 0x2330 <i2c_wrt>
	i2c_wrt(ds1307_dec2bcd(minute));
     f4e:	8c 2d       	mov	r24, r12
     f50:	0e 94 2a 07 	call	0xe54	; 0xe54 <ds1307_dec2bcd>
     f54:	0e 94 98 11 	call	0x2330	; 0x2330 <i2c_wrt>
	i2c_wrt(ds1307_dec2bcd(hour));
     f58:	8b 2d       	mov	r24, r11
     f5a:	0e 94 2a 07 	call	0xe54	; 0xe54 <ds1307_dec2bcd>
     f5e:	0e 94 98 11 	call	0x2330	; 0x2330 <i2c_wrt>
	i2c_wrt(ds1307_dec2bcd(dayofweek));
     f62:	8e 2d       	mov	r24, r14
     f64:	0e 94 2a 07 	call	0xe54	; 0xe54 <ds1307_dec2bcd>
     f68:	0e 94 98 11 	call	0x2330	; 0x2330 <i2c_wrt>
	i2c_wrt(ds1307_dec2bcd(day));
     f6c:	81 2f       	mov	r24, r17
     f6e:	0e 94 2a 07 	call	0xe54	; 0xe54 <ds1307_dec2bcd>
     f72:	0e 94 98 11 	call	0x2330	; 0x2330 <i2c_wrt>
	i2c_wrt(ds1307_dec2bcd(month));
     f76:	8f 2d       	mov	r24, r15
     f78:	0e 94 2a 07 	call	0xe54	; 0xe54 <ds1307_dec2bcd>
     f7c:	0e 94 98 11 	call	0x2330	; 0x2330 <i2c_wrt>
	i2c_wrt(ds1307_dec2bcd(year));
     f80:	8d 2d       	mov	r24, r13
     f82:	0e 94 2a 07 	call	0xe54	; 0xe54 <ds1307_dec2bcd>
     f86:	0e 94 98 11 	call	0x2330	; 0x2330 <i2c_wrt>
	i2c_wrt(0x00); //start oscillator
     f8a:	80 e0       	ldi	r24, 0x00	; 0
     f8c:	0e 94 98 11 	call	0x2330	; 0x2330 <i2c_wrt>
	i2c_stop();
     f90:	0e 94 52 11 	call	0x22a4	; 0x22a4 <i2c_stop>
     f94:	81 e0       	ldi	r24, 0x01	; 1
     f96:	01 c0       	rjmp	.+2      	; 0xf9a <ds1307_setdate+0xce>

return 1;
     f98:	88 e0       	ldi	r24, 0x08	; 8
}
     f9a:	1f 91       	pop	r17
     f9c:	0f 91       	pop	r16
     f9e:	ff 90       	pop	r15
     fa0:	ef 90       	pop	r14
     fa2:	df 90       	pop	r13
     fa4:	cf 90       	pop	r12
     fa6:	bf 90       	pop	r11
     fa8:	08 95       	ret

00000faa <ds1307_getdate>:

void ds1307_getdate(unsigned char *year, unsigned char *month, unsigned char *day, unsigned char *hour, unsigned char *minute, unsigned char *second)
{
     faa:	4f 92       	push	r4
     fac:	5f 92       	push	r5
     fae:	6f 92       	push	r6
     fb0:	7f 92       	push	r7
     fb2:	8f 92       	push	r8
     fb4:	9f 92       	push	r9
     fb6:	af 92       	push	r10
     fb8:	bf 92       	push	r11
     fba:	cf 92       	push	r12
     fbc:	df 92       	push	r13
     fbe:	ef 92       	push	r14
     fc0:	ff 92       	push	r15
     fc2:	0f 93       	push	r16
     fc4:	1f 93       	push	r17
     fc6:	2c 01       	movw	r4, r24
     fc8:	3b 01       	movw	r6, r22
     fca:	4a 01       	movw	r8, r20
     fcc:	59 01       	movw	r10, r18
     fce:	68 01       	movw	r12, r16
	i2c_start_wait(DS1307_ADDR | I2C_W);
     fd0:	80 ed       	ldi	r24, 0xD0	; 208
     fd2:	0e 94 77 11 	call	0x22ee	; 0x22ee <i2c_start_wait>
	i2c_wrt(0x00);//stop oscillator
     fd6:	80 e0       	ldi	r24, 0x00	; 0
     fd8:	0e 94 98 11 	call	0x2330	; 0x2330 <i2c_wrt>
	i2c_stop();
     fdc:	0e 94 52 11 	call	0x22a4	; 0x22a4 <i2c_stop>

	i2c_rep_start(DS1307_ADDR | I2C_R);
     fe0:	81 ed       	ldi	r24, 0xD1	; 209
     fe2:	0e 94 95 11 	call	0x232a	; 0x232a <i2c_rep_start>
	*second = ds1307_bcd2dec(i2c_readAck() & 0x7F);
     fe6:	0e 94 a6 11 	call	0x234c	; 0x234c <i2c_readAck>
     fea:	8f 77       	andi	r24, 0x7F	; 127
     fec:	98 2f       	mov	r25, r24
     fee:	92 95       	swap	r25
     ff0:	9f 70       	andi	r25, 0x0F	; 15
     ff2:	0a ef       	ldi	r16, 0xFA	; 250
     ff4:	1f ef       	ldi	r17, 0xFF	; 255
     ff6:	90 9f       	mul	r25, r16
     ff8:	90 2d       	mov	r25, r0
     ffa:	11 24       	eor	r1, r1
     ffc:	98 0f       	add	r25, r24
     ffe:	f7 01       	movw	r30, r14
    1000:	90 83       	st	Z, r25
	*minute = ds1307_bcd2dec(i2c_readAck());
    1002:	0e 94 a6 11 	call	0x234c	; 0x234c <i2c_readAck>
    1006:	98 2f       	mov	r25, r24
    1008:	92 95       	swap	r25
    100a:	9f 70       	andi	r25, 0x0F	; 15
    100c:	90 9f       	mul	r25, r16
    100e:	90 2d       	mov	r25, r0
    1010:	11 24       	eor	r1, r1
    1012:	98 0f       	add	r25, r24
    1014:	f6 01       	movw	r30, r12
    1016:	90 83       	st	Z, r25
	*hour = ds1307_bcd2dec(i2c_readAck());
    1018:	0e 94 a6 11 	call	0x234c	; 0x234c <i2c_readAck>
    101c:	98 2f       	mov	r25, r24
    101e:	92 95       	swap	r25
    1020:	9f 70       	andi	r25, 0x0F	; 15
    1022:	90 9f       	mul	r25, r16
    1024:	90 2d       	mov	r25, r0
    1026:	11 24       	eor	r1, r1
    1028:	98 0f       	add	r25, r24
    102a:	f5 01       	movw	r30, r10
    102c:	90 83       	st	Z, r25
	i2c_readAck();
    102e:	0e 94 a6 11 	call	0x234c	; 0x234c <i2c_readAck>
	*day = ds1307_bcd2dec(i2c_readAck());
    1032:	0e 94 a6 11 	call	0x234c	; 0x234c <i2c_readAck>
    1036:	98 2f       	mov	r25, r24
    1038:	92 95       	swap	r25
    103a:	9f 70       	andi	r25, 0x0F	; 15
    103c:	90 9f       	mul	r25, r16
    103e:	90 2d       	mov	r25, r0
    1040:	11 24       	eor	r1, r1
    1042:	98 0f       	add	r25, r24
    1044:	f4 01       	movw	r30, r8
    1046:	90 83       	st	Z, r25
	*month = ds1307_bcd2dec(i2c_readAck());
    1048:	0e 94 a6 11 	call	0x234c	; 0x234c <i2c_readAck>
    104c:	98 2f       	mov	r25, r24
    104e:	92 95       	swap	r25
    1050:	9f 70       	andi	r25, 0x0F	; 15
    1052:	90 9f       	mul	r25, r16
    1054:	90 2d       	mov	r25, r0
    1056:	11 24       	eor	r1, r1
    1058:	98 0f       	add	r25, r24
    105a:	f3 01       	movw	r30, r6
    105c:	90 83       	st	Z, r25
	*year = ds1307_bcd2dec(i2c_readNak());
    105e:	0e 94 ad 11 	call	0x235a	; 0x235a <i2c_readNak>
    1062:	98 2f       	mov	r25, r24
    1064:	92 95       	swap	r25
    1066:	9f 70       	andi	r25, 0x0F	; 15
    1068:	90 9f       	mul	r25, r16
    106a:	90 2d       	mov	r25, r0
    106c:	11 24       	eor	r1, r1
    106e:	98 0f       	add	r25, r24
    1070:	f2 01       	movw	r30, r4
    1072:	90 83       	st	Z, r25
	i2c_stop();
    1074:	0e 94 52 11 	call	0x22a4	; 0x22a4 <i2c_stop>
}
    1078:	1f 91       	pop	r17
    107a:	0f 91       	pop	r16
    107c:	ff 90       	pop	r15
    107e:	ef 90       	pop	r14
    1080:	df 90       	pop	r13
    1082:	cf 90       	pop	r12
    1084:	bf 90       	pop	r11
    1086:	af 90       	pop	r10
    1088:	9f 90       	pop	r9
    108a:	8f 90       	pop	r8
    108c:	7f 90       	pop	r7
    108e:	6f 90       	pop	r6
    1090:	5f 90       	pop	r5
    1092:	4f 90       	pop	r4
    1094:	08 95       	ret

00001096 <ds1307_init>:

extern const unsigned char ds1307_daysinmonth [];

void ds1307_init(void)
{
    i2c_init();
    1096:	0e 94 4d 11 	call	0x229a	; 0x229a <i2c_init>
    can be achieved.
*/
void
_delay_loop_1(uint8_t __count)
{
	__asm__ volatile (
    109a:	85 e3       	ldi	r24, 0x35	; 53
    109c:	8a 95       	dec	r24
    109e:	f1 f7       	brne	.-4      	; 0x109c <ds1307_init+0x6>
    _delay_us(10);
}
    10a0:	08 95       	ret

000010a2 <lcd_cmd_half_byte>:
void lcd_cmd_half_byte(unsigned char cmd)
{
unsigned char tmp;
	
    /*Set RS = 0, E = 1, send the hi 4 bits*/
	tmp = (cmd & ~(1<<RS)) | (1<<E);
    10a2:	83 7f       	andi	r24, 0xF3	; 243
    10a4:	88 60       	ori	r24, 0x08	; 8
	PORT = tmp;
    10a6:	85 bb       	out	0x15, r24	; 21
	asm("nop");
    10a8:	00 00       	nop
	PORT = tmp & ~(1<<E);
    10aa:	87 7f       	andi	r24, 0xF7	; 247
    10ac:	85 bb       	out	0x15, r24	; 21
	asm("nop");
    10ae:	00 00       	nop
}
    10b0:	08 95       	ret

000010b2 <lcd_cmd_full_byte>:
void lcd_cmd_full_byte(unsigned char cmd)
{
unsigned char tmp;

    /*send the first 4 bits*/
	tmp = (cmd & ~(1<<RS)) | (1<<E);
    10b2:	98 2f       	mov	r25, r24
    10b4:	93 7f       	andi	r25, 0xF3	; 243
    10b6:	98 60       	ori	r25, 0x08	; 8
	PORT = tmp;
    10b8:	95 bb       	out	0x15, r25	; 21
	asm("nop");
    10ba:	00 00       	nop
	PORT = tmp & ~(1<<E);
    10bc:	97 7f       	andi	r25, 0xF7	; 247
    10be:	95 bb       	out	0x15, r25	; 21
	asm("nop");
    10c0:	00 00       	nop
    milliseconds can be achieved.
 */
void
_delay_loop_2(uint16_t __count)
{
	__asm__ volatile (
    10c2:	28 ec       	ldi	r18, 0xC8	; 200
    10c4:	30 e0       	ldi	r19, 0x00	; 0
    10c6:	f9 01       	movw	r30, r18
    10c8:	31 97       	sbiw	r30, 0x01	; 1
    10ca:	f1 f7       	brne	.-4      	; 0x10c8 <lcd_cmd_full_byte+0x16>
	_delay_us(50);// Задержка для выполнения команды контроллером ЖКИ

    /*send the second 4 bits*/
	tmp = ((cmd<<4) & ~(1<<RS)) | (1<<E);
    10cc:	82 95       	swap	r24
    10ce:	80 7f       	andi	r24, 0xF0	; 240
    10d0:	88 60       	ori	r24, 0x08	; 8
	PORT = tmp;
    10d2:	85 bb       	out	0x15, r24	; 21
	asm("nop");
    10d4:	00 00       	nop
	PORT = tmp & ~(1<<E);
    10d6:	87 7f       	andi	r24, 0xF7	; 247
    10d8:	85 bb       	out	0x15, r24	; 21
	asm("nop");
    10da:	00 00       	nop
    10dc:	c9 01       	movw	r24, r18
    10de:	01 97       	sbiw	r24, 0x01	; 1
    10e0:	f1 f7       	brne	.-4      	; 0x10de <lcd_cmd_full_byte+0x2c>
	_delay_us(50);
}
    10e2:	08 95       	ret

000010e4 <lcd_gotoxy>:

void lcd_gotoxy(unsigned char x, unsigned char y)
{
    /*Только на видимой части LCD*/
    if((x > 1) || (y > 15)) return;
    10e4:	82 30       	cpi	r24, 0x02	; 2
    10e6:	70 f4       	brcc	.+28     	; 0x1104 <lcd_gotoxy+0x20>
    10e8:	60 31       	cpi	r22, 0x10	; 16
    10ea:	60 f4       	brcc	.+24     	; 0x1104 <lcd_gotoxy+0x20>

    if(x == 0) lcd_cmd_full_byte( y | (1<<7) );
    10ec:	88 23       	and	r24, r24
    10ee:	29 f4       	brne	.+10     	; 0x10fa <lcd_gotoxy+0x16>
    10f0:	86 2f       	mov	r24, r22
    10f2:	80 68       	ori	r24, 0x80	; 128
    10f4:	0e 94 59 08 	call	0x10b2	; 0x10b2 <lcd_cmd_full_byte>
    10f8:	08 95       	ret
	else
	{
		x = 0x40;
		x = x+y;
		lcd_cmd_full_byte(x | (1<<7));
    10fa:	60 5c       	subi	r22, 0xC0	; 192
    10fc:	86 2f       	mov	r24, r22
    10fe:	80 68       	ori	r24, 0x80	; 128
    1100:	0e 94 59 08 	call	0x10b2	; 0x10b2 <lcd_cmd_full_byte>
    1104:	08 95       	ret

00001106 <lcd_clr>:
}

void lcd_clr(void)
{
    /*return home an address 00 on LCD*/
	lcd_cmd_full_byte(0b10000000);
    1106:	80 e8       	ldi	r24, 0x80	; 128
    1108:	0e 94 59 08 	call	0x10b2	; 0x10b2 <lcd_cmd_full_byte>
    110c:	80 e4       	ldi	r24, 0x40	; 64
    110e:	9f e1       	ldi	r25, 0x1F	; 31
    1110:	01 97       	sbiw	r24, 0x01	; 1
    1112:	f1 f7       	brne	.-4      	; 0x1110 <lcd_clr+0xa>
	_delay_ms(2);
    /*Clear the display*/
	lcd_cmd_full_byte(0b00000001);
    1114:	81 e0       	ldi	r24, 0x01	; 1
    1116:	0e 94 59 08 	call	0x10b2	; 0x10b2 <lcd_cmd_full_byte>
    111a:	84 ef       	ldi	r24, 0xF4	; 244
    111c:	91 e0       	ldi	r25, 0x01	; 1
    111e:	20 e9       	ldi	r18, 0x90	; 144
    1120:	31 e0       	ldi	r19, 0x01	; 1
    1122:	f9 01       	movw	r30, r18
    1124:	31 97       	sbiw	r30, 0x01	; 1
    1126:	f1 f7       	brne	.-4      	; 0x1124 <lcd_clr+0x1e>
		__ticks = (uint16_t) (__ms * 10.0);
		while(__ticks)
		{
			// wait 1/10 ms
			_delay_loop_2(((F_CPU) / 4e3) / 10);
			__ticks --;
    1128:	01 97       	sbiw	r24, 0x01	; 1
		__ticks = 1;
	else if (__tmp > 65535)
	{
		//	__ticks = requested delay in 1/10 ms
		__ticks = (uint16_t) (__ms * 10.0);
		while(__ticks)
    112a:	d9 f7       	brne	.-10     	; 0x1122 <lcd_clr+0x1c>
	_delay_ms(50);
}
    112c:	08 95       	ret

0000112e <lcd_putchar>:
void lcd_putchar(unsigned char data)
{
unsigned char tmp;

    /*Вывод первой половины байта данных*/
	tmp = (data | (1<<RS)) | (1<<E);
    112e:	98 2f       	mov	r25, r24
    1130:	9c 60       	ori	r25, 0x0C	; 12
	PORT = tmp;
    1132:	95 bb       	out	0x15, r25	; 21
	asm("nop");
    1134:	00 00       	nop
	PORT = tmp & ~(1<<E);
    1136:	97 7f       	andi	r25, 0xF7	; 247
    1138:	95 bb       	out	0x15, r25	; 21
	asm("nop");
    113a:	00 00       	nop
    113c:	20 e4       	ldi	r18, 0x40	; 64
    113e:	3f e1       	ldi	r19, 0x1F	; 31
    1140:	f9 01       	movw	r30, r18
    1142:	31 97       	sbiw	r30, 0x01	; 1
    1144:	f1 f7       	brne	.-4      	; 0x1142 <lcd_putchar+0x14>
	_delay_ms(2);

    /*Вывод второй половины байта данных*/
	tmp = ((data<<4) | (1<<RS)) | (1<<E);
    1146:	82 95       	swap	r24
    1148:	80 7f       	andi	r24, 0xF0	; 240
    114a:	8c 60       	ori	r24, 0x0C	; 12
	PORT = tmp;
    114c:	85 bb       	out	0x15, r24	; 21
	asm("nop");
    114e:	00 00       	nop
	PORT = tmp & ~(1<<E);
    1150:	87 7f       	andi	r24, 0xF7	; 247
    1152:	85 bb       	out	0x15, r24	; 21
	asm("nop");
    1154:	00 00       	nop
    1156:	c9 01       	movw	r24, r18
    1158:	01 97       	sbiw	r24, 0x01	; 1
    115a:	f1 f7       	brne	.-4      	; 0x1158 <lcd_putchar+0x2a>
	_delay_ms(2);
}
    115c:	08 95       	ret

0000115e <lcd_str>:

void lcd_str(char *s)
{
    115e:	cf 93       	push	r28
    1160:	df 93       	push	r29
    1162:	ec 01       	movw	r28, r24
    1164:	03 c0       	rjmp	.+6      	; 0x116c <lcd_str+0xe>
	while(*s)
		lcd_putchar(*s++);
    1166:	21 96       	adiw	r28, 0x01	; 1
    1168:	0e 94 97 08 	call	0x112e	; 0x112e <lcd_putchar>
	_delay_ms(2);
}

void lcd_str(char *s)
{
	while(*s)
    116c:	88 81       	ld	r24, Y
    116e:	88 23       	and	r24, r24
    1170:	d1 f7       	brne	.-12     	; 0x1166 <lcd_str+0x8>
		lcd_putchar(*s++);
}
    1172:	df 91       	pop	r29
    1174:	cf 91       	pop	r28
    1176:	08 95       	ret

00001178 <lcd_init>:

void lcd_init(void)
{
    1178:	0f 93       	push	r16
    117a:	1f 93       	push	r17
DDR = 0xFC;
    117c:	8c ef       	ldi	r24, 0xFC	; 252
    117e:	84 bb       	out	0x14, r24	; 20
PORT = 0x00;
    1180:	15 ba       	out	0x15, r1	; 21
    1182:	80 e2       	ldi	r24, 0x20	; 32
    1184:	9e e4       	ldi	r25, 0x4E	; 78
    1186:	20 e9       	ldi	r18, 0x90	; 144
    1188:	31 e0       	ldi	r19, 0x01	; 1
    118a:	f9 01       	movw	r30, r18
    118c:	31 97       	sbiw	r30, 0x01	; 1
    118e:	f1 f7       	brne	.-4      	; 0x118c <lcd_init+0x14>
		{
			// wait 1/10 ms
			_delay_loop_2(((F_CPU) / 4e3) / 10);
			__ticks --;
    1190:	01 97       	sbiw	r24, 0x01	; 1
		__ticks = 1;
	else if (__tmp > 65535)
	{
		//	__ticks = requested delay in 1/10 ms
		__ticks = (uint16_t) (__ms * 10.0);
		while(__ticks)
    1192:	d9 f7       	brne	.-10     	; 0x118a <lcd_init+0x12>
_delay_ms(2000);

    /* First function set */
	lcd_cmd_half_byte(0b00110000);
    1194:	80 e3       	ldi	r24, 0x30	; 48
    1196:	0e 94 51 08 	call	0x10a2	; 0x10a2 <lcd_cmd_half_byte>
    119a:	80 e2       	ldi	r24, 0x20	; 32
    119c:	9e e4       	ldi	r25, 0x4E	; 78
    119e:	01 97       	sbiw	r24, 0x01	; 1
    11a0:	f1 f7       	brne	.-4      	; 0x119e <lcd_init+0x26>
	_delay_ms(5);
    /* Second function set */
	lcd_cmd_half_byte(0b00110000);
    11a2:	80 e3       	ldi	r24, 0x30	; 48
    11a4:	0e 94 51 08 	call	0x10a2	; 0x10a2 <lcd_cmd_half_byte>
    11a8:	88 ee       	ldi	r24, 0xE8	; 232
    11aa:	93 e0       	ldi	r25, 0x03	; 3
    11ac:	20 e9       	ldi	r18, 0x90	; 144
    11ae:	31 e0       	ldi	r19, 0x01	; 1
    11b0:	f9 01       	movw	r30, r18
    11b2:	31 97       	sbiw	r30, 0x01	; 1
    11b4:	f1 f7       	brne	.-4      	; 0x11b2 <lcd_init+0x3a>
		{
			// wait 1/10 ms
			_delay_loop_2(((F_CPU) / 4e3) / 10);
			__ticks --;
    11b6:	01 97       	sbiw	r24, 0x01	; 1
		__ticks = 1;
	else if (__tmp > 65535)
	{
		//	__ticks = requested delay in 1/10 ms
		__ticks = (uint16_t) (__ms * 10.0);
		while(__ticks)
    11b8:	d9 f7       	brne	.-10     	; 0x11b0 <lcd_init+0x38>
	_delay_ms(100);
    /* Third function set */
	lcd_cmd_half_byte(0b00110000);
    11ba:	80 e3       	ldi	r24, 0x30	; 48
    11bc:	0e 94 51 08 	call	0x10a2	; 0x10a2 <lcd_cmd_half_byte>
    11c0:	00 e4       	ldi	r16, 0x40	; 64
    11c2:	1f e1       	ldi	r17, 0x1F	; 31
    11c4:	c8 01       	movw	r24, r16
    11c6:	01 97       	sbiw	r24, 0x01	; 1
    11c8:	f1 f7       	brne	.-4      	; 0x11c6 <lcd_init+0x4e>
	_delay_ms(2);
    /* Last function set */
	lcd_cmd_half_byte(0b00100000);
    11ca:	80 e2       	ldi	r24, 0x20	; 32
    11cc:	0e 94 51 08 	call	0x10a2	; 0x10a2 <lcd_cmd_half_byte>
    11d0:	c8 01       	movw	r24, r16
    11d2:	01 97       	sbiw	r24, 0x01	; 1
    11d4:	f1 f7       	brne	.-4      	; 0x11d2 <lcd_init+0x5a>
	_delay_ms(2);
	
    /* Function set */
	lcd_cmd_full_byte(0x28);
    11d6:	88 e2       	ldi	r24, 0x28	; 40
    11d8:	0e 94 59 08 	call	0x10b2	; 0x10b2 <lcd_cmd_full_byte>
    /* Display on/off */
	lcd_cmd_full_byte(0b00001100);
    11dc:	8c e0       	ldi	r24, 0x0C	; 12
    11de:	0e 94 59 08 	call	0x10b2	; 0x10b2 <lcd_cmd_full_byte>
    /* Clear display */
	lcd_cmd_full_byte(0b00000001);
    11e2:	81 e0       	ldi	r24, 0x01	; 1
    11e4:	0e 94 59 08 	call	0x10b2	; 0x10b2 <lcd_cmd_full_byte>
    /* Entry mode */
	lcd_cmd_full_byte(0x06);
    11e8:	86 e0       	ldi	r24, 0x06	; 6
    11ea:	0e 94 59 08 	call	0x10b2	; 0x10b2 <lcd_cmd_full_byte>
}
    11ee:	1f 91       	pop	r17
    11f0:	0f 91       	pop	r16
    11f2:	08 95       	ret

000011f4 <dir_rewind>:

static
FRESULT dir_rewind (
	DIR *dj			/* Pointer to directory object */
)
{
    11f4:	cf 92       	push	r12
    11f6:	df 92       	push	r13
    11f8:	ef 92       	push	r14
    11fa:	ff 92       	push	r15
    11fc:	0f 93       	push	r16
    11fe:	1f 93       	push	r17
    1200:	cf 93       	push	r28
    1202:	df 93       	push	r29
    1204:	6c 01       	movw	r12, r24
	CLUST clst;
	FATFS *fs = FatFs;
    1206:	c0 91 00 02 	lds	r28, 0x0200
    120a:	d0 91 01 02 	lds	r29, 0x0201


	dj->index = 0;
    120e:	fc 01       	movw	r30, r24
    1210:	11 82       	std	Z+1, r1	; 0x01
    1212:	10 82       	st	Z, r1
	clst = dj->sclust;
    1214:	24 81       	ldd	r18, Z+4	; 0x04
    1216:	35 81       	ldd	r19, Z+5	; 0x05
    1218:	46 81       	ldd	r20, Z+6	; 0x06
    121a:	57 81       	ldd	r21, Z+7	; 0x07
	if (clst == 1 || clst >= fs->n_fatent)	/* Check start cluster range */
    121c:	21 30       	cpi	r18, 0x01	; 1
    121e:	31 05       	cpc	r19, r1
    1220:	41 05       	cpc	r20, r1
    1222:	51 05       	cpc	r21, r1
    1224:	09 f4       	brne	.+2      	; 0x1228 <dir_rewind+0x34>
    1226:	5b c0       	rjmp	.+182    	; 0x12de <dir_rewind+0xea>
    1228:	8e 81       	ldd	r24, Y+6	; 0x06
    122a:	9f 81       	ldd	r25, Y+7	; 0x07
    122c:	a8 85       	ldd	r26, Y+8	; 0x08
    122e:	b9 85       	ldd	r27, Y+9	; 0x09
    1230:	28 17       	cp	r18, r24
    1232:	39 07       	cpc	r19, r25
    1234:	4a 07       	cpc	r20, r26
    1236:	5b 07       	cpc	r21, r27
    1238:	08 f0       	brcs	.+2      	; 0x123c <dir_rewind+0x48>
    123a:	51 c0       	rjmp	.+162    	; 0x12de <dir_rewind+0xea>
		return FR_DISK_ERR;
	if (_FS_FAT32 && !clst && fs->fs_type == FS_FAT32)	/* Replace cluster# 0 with root cluster# if in FAT32 */
    123c:	21 15       	cp	r18, r1
    123e:	31 05       	cpc	r19, r1
    1240:	41 05       	cpc	r20, r1
    1242:	51 05       	cpc	r21, r1
    1244:	39 f4       	brne	.+14     	; 0x1254 <dir_rewind+0x60>
    1246:	88 81       	ld	r24, Y
    1248:	83 30       	cpi	r24, 0x03	; 3
    124a:	21 f4       	brne	.+8      	; 0x1254 <dir_rewind+0x60>
		clst = (CLUST)fs->dirbase;
    124c:	2e 85       	ldd	r18, Y+14	; 0x0e
    124e:	3f 85       	ldd	r19, Y+15	; 0x0f
    1250:	48 89       	ldd	r20, Y+16	; 0x10
    1252:	59 89       	ldd	r21, Y+17	; 0x11
	dj->clust = clst;						/* Current cluster */
    1254:	f6 01       	movw	r30, r12
    1256:	20 87       	std	Z+8, r18	; 0x08
    1258:	31 87       	std	Z+9, r19	; 0x09
    125a:	42 87       	std	Z+10, r20	; 0x0a
    125c:	53 87       	std	Z+11, r21	; 0x0b
	dj->sect = clst ? clust2sect(clst) : fs->dirbase;	/* Current sector */
    125e:	21 15       	cp	r18, r1
    1260:	31 05       	cpc	r19, r1
    1262:	41 05       	cpc	r20, r1
    1264:	51 05       	cpc	r21, r1
    1266:	81 f1       	breq	.+96     	; 0x12c8 <dir_rewind+0xd4>
)
{
	FATFS *fs = FatFs;


	clst -= 2;
    1268:	8e ef       	ldi	r24, 0xFE	; 254
    126a:	e8 2e       	mov	r14, r24
    126c:	8f ef       	ldi	r24, 0xFF	; 255
    126e:	f8 2e       	mov	r15, r24
    1270:	8f ef       	ldi	r24, 0xFF	; 255
    1272:	08 2f       	mov	r16, r24
    1274:	8f ef       	ldi	r24, 0xFF	; 255
    1276:	18 2f       	mov	r17, r24
    1278:	e2 0e       	add	r14, r18
    127a:	f3 1e       	adc	r15, r19
    127c:	04 1f       	adc	r16, r20
    127e:	15 1f       	adc	r17, r21
	if (clst >= (fs->n_fatent - 2)) return 0;		/* Invalid cluster# */
    1280:	8e 81       	ldd	r24, Y+6	; 0x06
    1282:	9f 81       	ldd	r25, Y+7	; 0x07
    1284:	a8 85       	ldd	r26, Y+8	; 0x08
    1286:	b9 85       	ldd	r27, Y+9	; 0x09
    1288:	02 97       	sbiw	r24, 0x02	; 2
    128a:	a1 09       	sbc	r26, r1
    128c:	b1 09       	sbc	r27, r1
    128e:	e8 16       	cp	r14, r24
    1290:	f9 06       	cpc	r15, r25
    1292:	0a 07       	cpc	r16, r26
    1294:	1b 07       	cpc	r17, r27
    1296:	28 f0       	brcs	.+10     	; 0x12a2 <dir_rewind+0xae>
    1298:	20 e0       	ldi	r18, 0x00	; 0
    129a:	30 e0       	ldi	r19, 0x00	; 0
    129c:	40 e0       	ldi	r20, 0x00	; 0
    129e:	50 e0       	ldi	r21, 0x00	; 0
    12a0:	17 c0       	rjmp	.+46     	; 0x12d0 <dir_rewind+0xdc>
	return (DWORD)clst * fs->csize + fs->database;
    12a2:	2a 81       	ldd	r18, Y+2	; 0x02
    12a4:	30 e0       	ldi	r19, 0x00	; 0
    12a6:	40 e0       	ldi	r20, 0x00	; 0
    12a8:	50 e0       	ldi	r21, 0x00	; 0
    12aa:	c8 01       	movw	r24, r16
    12ac:	b7 01       	movw	r22, r14
    12ae:	0e 94 29 18 	call	0x3052	; 0x3052 <__mulsi3>
    12b2:	9b 01       	movw	r18, r22
    12b4:	ac 01       	movw	r20, r24
    12b6:	8a 89       	ldd	r24, Y+18	; 0x12
    12b8:	9b 89       	ldd	r25, Y+19	; 0x13
    12ba:	ac 89       	ldd	r26, Y+20	; 0x14
    12bc:	bd 89       	ldd	r27, Y+21	; 0x15
    12be:	28 0f       	add	r18, r24
    12c0:	39 1f       	adc	r19, r25
    12c2:	4a 1f       	adc	r20, r26
    12c4:	5b 1f       	adc	r21, r27
    12c6:	04 c0       	rjmp	.+8      	; 0x12d0 <dir_rewind+0xdc>
	if (clst == 1 || clst >= fs->n_fatent)	/* Check start cluster range */
		return FR_DISK_ERR;
	if (_FS_FAT32 && !clst && fs->fs_type == FS_FAT32)	/* Replace cluster# 0 with root cluster# if in FAT32 */
		clst = (CLUST)fs->dirbase;
	dj->clust = clst;						/* Current cluster */
	dj->sect = clst ? clust2sect(clst) : fs->dirbase;	/* Current sector */
    12c8:	2e 85       	ldd	r18, Y+14	; 0x0e
    12ca:	3f 85       	ldd	r19, Y+15	; 0x0f
    12cc:	48 89       	ldd	r20, Y+16	; 0x10
    12ce:	59 89       	ldd	r21, Y+17	; 0x11
    12d0:	f6 01       	movw	r30, r12
    12d2:	24 87       	std	Z+12, r18	; 0x0c
    12d4:	35 87       	std	Z+13, r19	; 0x0d
    12d6:	46 87       	std	Z+14, r20	; 0x0e
    12d8:	57 87       	std	Z+15, r21	; 0x0f
    12da:	80 e0       	ldi	r24, 0x00	; 0
    12dc:	01 c0       	rjmp	.+2      	; 0x12e0 <dir_rewind+0xec>

	return FR_OK;	/* Seek succeeded */
    12de:	81 e0       	ldi	r24, 0x01	; 1
}
    12e0:	df 91       	pop	r29
    12e2:	cf 91       	pop	r28
    12e4:	1f 91       	pop	r17
    12e6:	0f 91       	pop	r16
    12e8:	ff 90       	pop	r15
    12ea:	ef 90       	pop	r14
    12ec:	df 90       	pop	r13
    12ee:	cf 90       	pop	r12
    12f0:	08 95       	ret

000012f2 <get_fat>:

static
CLUST get_fat (	/* 1:IO error, Else:Cluster status */
	CLUST clst	/* Cluster# to get the link information */
)
{
    12f2:	6f 92       	push	r6
    12f4:	7f 92       	push	r7
    12f6:	8f 92       	push	r8
    12f8:	9f 92       	push	r9
    12fa:	af 92       	push	r10
    12fc:	bf 92       	push	r11
    12fe:	cf 92       	push	r12
    1300:	df 92       	push	r13
    1302:	ef 92       	push	r14
    1304:	ff 92       	push	r15
    1306:	0f 93       	push	r16
    1308:	1f 93       	push	r17
    130a:	df 93       	push	r29
    130c:	cf 93       	push	r28
    130e:	00 d0       	rcall	.+0      	; 0x1310 <get_fat+0x1e>
    1310:	00 d0       	rcall	.+0      	; 0x1312 <get_fat+0x20>
    1312:	cd b7       	in	r28, 0x3d	; 61
    1314:	de b7       	in	r29, 0x3e	; 62
    1316:	4b 01       	movw	r8, r22
    1318:	5c 01       	movw	r10, r24
	WORD wc, bc, ofs;
	BYTE buf[4];
	FATFS *fs = FatFs;
    131a:	60 90 00 02 	lds	r6, 0x0200
    131e:	70 90 01 02 	lds	r7, 0x0201


	if (clst < 2 || clst >= fs->n_fatent)	/* Range check */
    1322:	82 e0       	ldi	r24, 0x02	; 2
    1324:	88 16       	cp	r8, r24
    1326:	91 04       	cpc	r9, r1
    1328:	a1 04       	cpc	r10, r1
    132a:	b1 04       	cpc	r11, r1
    132c:	08 f4       	brcc	.+2      	; 0x1330 <get_fat+0x3e>
    132e:	dd c0       	rjmp	.+442    	; 0x14ea <get_fat+0x1f8>
    1330:	f3 01       	movw	r30, r6
    1332:	86 81       	ldd	r24, Z+6	; 0x06
    1334:	97 81       	ldd	r25, Z+7	; 0x07
    1336:	a0 85       	ldd	r26, Z+8	; 0x08
    1338:	b1 85       	ldd	r27, Z+9	; 0x09
    133a:	88 16       	cp	r8, r24
    133c:	99 06       	cpc	r9, r25
    133e:	aa 06       	cpc	r10, r26
    1340:	bb 06       	cpc	r11, r27
    1342:	08 f0       	brcs	.+2      	; 0x1346 <get_fat+0x54>
    1344:	d2 c0       	rjmp	.+420    	; 0x14ea <get_fat+0x1f8>
		return 1;

	switch (fs->fs_type) {
    1346:	80 81       	ld	r24, Z
    1348:	82 30       	cpi	r24, 0x02	; 2
    134a:	09 f4       	brne	.+2      	; 0x134e <get_fat+0x5c>
    134c:	64 c0       	rjmp	.+200    	; 0x1416 <get_fat+0x124>
    134e:	83 30       	cpi	r24, 0x03	; 3
    1350:	09 f4       	brne	.+2      	; 0x1354 <get_fat+0x62>
    1352:	85 c0       	rjmp	.+266    	; 0x145e <get_fat+0x16c>
    1354:	81 30       	cpi	r24, 0x01	; 1
    1356:	09 f0       	breq	.+2      	; 0x135a <get_fat+0x68>
    1358:	c8 c0       	rjmp	.+400    	; 0x14ea <get_fat+0x1f8>
#if _FS_FAT12
	case FS_FAT12 :
		bc = (WORD)clst; bc += bc / 2;
    135a:	c4 01       	movw	r24, r8
    135c:	96 95       	lsr	r25
    135e:	87 95       	ror	r24
    1360:	88 0d       	add	r24, r8
    1362:	99 1d       	adc	r25, r9
		ofs = bc % 512; bc /= 512;
    1364:	9c 01       	movw	r18, r24
    1366:	31 70       	andi	r19, 0x01	; 1
    1368:	89 2f       	mov	r24, r25
    136a:	99 27       	eor	r25, r25
    136c:	86 95       	lsr	r24
    136e:	6c 01       	movw	r12, r24
    1370:	ee 24       	eor	r14, r14
    1372:	ff 24       	eor	r15, r15
    1374:	f3 01       	movw	r30, r6
    1376:	42 85       	ldd	r20, Z+10	; 0x0a
    1378:	53 85       	ldd	r21, Z+11	; 0x0b
    137a:	64 85       	ldd	r22, Z+12	; 0x0c
    137c:	75 85       	ldd	r23, Z+13	; 0x0d
    137e:	ce 01       	movw	r24, r28
    1380:	01 96       	adiw	r24, 0x01	; 1
		if (ofs != 511) {
    1382:	f1 e0       	ldi	r31, 0x01	; 1
    1384:	2f 3f       	cpi	r18, 0xFF	; 255
    1386:	3f 07       	cpc	r19, r31
    1388:	49 f0       	breq	.+18     	; 0x139c <get_fat+0xaa>
			if (disk_readp(buf, fs->fatbase + bc, ofs, 2)) break;
    138a:	c4 0e       	add	r12, r20
    138c:	d5 1e       	adc	r13, r21
    138e:	e6 1e       	adc	r14, r22
    1390:	f7 1e       	adc	r15, r23
    1392:	b7 01       	movw	r22, r14
    1394:	a6 01       	movw	r20, r12
    1396:	02 e0       	ldi	r16, 0x02	; 2
    1398:	10 e0       	ldi	r17, 0x00	; 0
    139a:	1e c0       	rjmp	.+60     	; 0x13d8 <get_fat+0xe6>
		} else {
			if (disk_readp(buf, fs->fatbase + bc, 511, 1)) break;
    139c:	4c 0d       	add	r20, r12
    139e:	5d 1d       	adc	r21, r13
    13a0:	6e 1d       	adc	r22, r14
    13a2:	7f 1d       	adc	r23, r15
    13a4:	2f ef       	ldi	r18, 0xFF	; 255
    13a6:	31 e0       	ldi	r19, 0x01	; 1
    13a8:	01 e0       	ldi	r16, 0x01	; 1
    13aa:	10 e0       	ldi	r17, 0x00	; 0
    13ac:	0e 94 6f 05 	call	0xade	; 0xade <disk_readp>
    13b0:	88 23       	and	r24, r24
    13b2:	09 f0       	breq	.+2      	; 0x13b6 <get_fat+0xc4>
    13b4:	9a c0       	rjmp	.+308    	; 0x14ea <get_fat+0x1f8>
			if (disk_readp(buf+1, fs->fatbase + bc + 1, 0, 1)) break;
    13b6:	f3 01       	movw	r30, r6
    13b8:	42 85       	ldd	r20, Z+10	; 0x0a
    13ba:	53 85       	ldd	r21, Z+11	; 0x0b
    13bc:	64 85       	ldd	r22, Z+12	; 0x0c
    13be:	75 85       	ldd	r23, Z+13	; 0x0d
    13c0:	4f 5f       	subi	r20, 0xFF	; 255
    13c2:	5f 4f       	sbci	r21, 0xFF	; 255
    13c4:	6f 4f       	sbci	r22, 0xFF	; 255
    13c6:	7f 4f       	sbci	r23, 0xFF	; 255
    13c8:	4c 0d       	add	r20, r12
    13ca:	5d 1d       	adc	r21, r13
    13cc:	6e 1d       	adc	r22, r14
    13ce:	7f 1d       	adc	r23, r15
    13d0:	ce 01       	movw	r24, r28
    13d2:	02 96       	adiw	r24, 0x02	; 2
    13d4:	20 e0       	ldi	r18, 0x00	; 0
    13d6:	30 e0       	ldi	r19, 0x00	; 0
    13d8:	0e 94 6f 05 	call	0xade	; 0xade <disk_readp>
    13dc:	88 23       	and	r24, r24
    13de:	09 f0       	breq	.+2      	; 0x13e2 <get_fat+0xf0>
    13e0:	84 c0       	rjmp	.+264    	; 0x14ea <get_fat+0x1f8>
		}
		wc = LD_WORD(buf);
    13e2:	9a 81       	ldd	r25, Y+2	; 0x02
    13e4:	80 e0       	ldi	r24, 0x00	; 0
    13e6:	29 81       	ldd	r18, Y+1	; 0x01
    13e8:	62 2f       	mov	r22, r18
    13ea:	70 e0       	ldi	r23, 0x00	; 0
    13ec:	68 2b       	or	r22, r24
    13ee:	79 2b       	or	r23, r25
		return (clst & 1) ? (wc >> 4) : (wc & 0xFFF);
    13f0:	c4 01       	movw	r24, r8
    13f2:	81 70       	andi	r24, 0x01	; 1
    13f4:	90 70       	andi	r25, 0x00	; 0
    13f6:	89 2b       	or	r24, r25
    13f8:	39 f0       	breq	.+14     	; 0x1408 <get_fat+0x116>
    13fa:	14 e0       	ldi	r17, 0x04	; 4
    13fc:	76 95       	lsr	r23
    13fe:	67 95       	ror	r22
    1400:	1a 95       	dec	r17
    1402:	e1 f7       	brne	.-8      	; 0x13fc <get_fat+0x10a>
    1404:	9b 01       	movw	r18, r22
    1406:	28 c0       	rjmp	.+80     	; 0x1458 <get_fat+0x166>
    1408:	9b 01       	movw	r18, r22
    140a:	40 e0       	ldi	r20, 0x00	; 0
    140c:	50 e0       	ldi	r21, 0x00	; 0
    140e:	3f 70       	andi	r19, 0x0F	; 15
    1410:	40 70       	andi	r20, 0x00	; 0
    1412:	50 70       	andi	r21, 0x00	; 0
    1414:	6e c0       	rjmp	.+220    	; 0x14f2 <get_fat+0x200>
#endif
	case FS_FAT16 :
		if (disk_readp(buf, fs->fatbase + clst / 256, (WORD)(((WORD)clst % 256) * 2), 2)) break;
    1416:	77 27       	eor	r23, r23
    1418:	6b 2d       	mov	r22, r11
    141a:	5a 2d       	mov	r21, r10
    141c:	49 2d       	mov	r20, r9
    141e:	f3 01       	movw	r30, r6
    1420:	82 85       	ldd	r24, Z+10	; 0x0a
    1422:	93 85       	ldd	r25, Z+11	; 0x0b
    1424:	a4 85       	ldd	r26, Z+12	; 0x0c
    1426:	b5 85       	ldd	r27, Z+13	; 0x0d
    1428:	48 0f       	add	r20, r24
    142a:	59 1f       	adc	r21, r25
    142c:	6a 1f       	adc	r22, r26
    142e:	7b 1f       	adc	r23, r27
    1430:	94 01       	movw	r18, r8
    1432:	30 70       	andi	r19, 0x00	; 0
    1434:	22 0f       	add	r18, r18
    1436:	33 1f       	adc	r19, r19
    1438:	ce 01       	movw	r24, r28
    143a:	01 96       	adiw	r24, 0x01	; 1
    143c:	02 e0       	ldi	r16, 0x02	; 2
    143e:	10 e0       	ldi	r17, 0x00	; 0
    1440:	0e 94 6f 05 	call	0xade	; 0xade <disk_readp>
    1444:	88 23       	and	r24, r24
    1446:	09 f0       	breq	.+2      	; 0x144a <get_fat+0x158>
    1448:	50 c0       	rjmp	.+160    	; 0x14ea <get_fat+0x1f8>
		return LD_WORD(buf);
    144a:	9a 81       	ldd	r25, Y+2	; 0x02
    144c:	80 e0       	ldi	r24, 0x00	; 0
    144e:	29 81       	ldd	r18, Y+1	; 0x01
    1450:	30 e0       	ldi	r19, 0x00	; 0
    1452:	82 2b       	or	r24, r18
    1454:	93 2b       	or	r25, r19
    1456:	9c 01       	movw	r18, r24
    1458:	40 e0       	ldi	r20, 0x00	; 0
    145a:	50 e0       	ldi	r21, 0x00	; 0
    145c:	4a c0       	rjmp	.+148    	; 0x14f2 <get_fat+0x200>
#if _FS_FAT32
	case FS_FAT32 :
		if (disk_readp(buf, fs->fatbase + clst / 128, (WORD)(((WORD)clst % 128) * 4), 4)) break;
    145e:	b5 01       	movw	r22, r10
    1460:	a4 01       	movw	r20, r8
    1462:	f7 e0       	ldi	r31, 0x07	; 7
    1464:	76 95       	lsr	r23
    1466:	67 95       	ror	r22
    1468:	57 95       	ror	r21
    146a:	47 95       	ror	r20
    146c:	fa 95       	dec	r31
    146e:	d1 f7       	brne	.-12     	; 0x1464 <get_fat+0x172>
    1470:	f3 01       	movw	r30, r6
    1472:	82 85       	ldd	r24, Z+10	; 0x0a
    1474:	93 85       	ldd	r25, Z+11	; 0x0b
    1476:	a4 85       	ldd	r26, Z+12	; 0x0c
    1478:	b5 85       	ldd	r27, Z+13	; 0x0d
    147a:	48 0f       	add	r20, r24
    147c:	59 1f       	adc	r21, r25
    147e:	6a 1f       	adc	r22, r26
    1480:	7b 1f       	adc	r23, r27
    1482:	94 01       	movw	r18, r8
    1484:	2f 77       	andi	r18, 0x7F	; 127
    1486:	30 70       	andi	r19, 0x00	; 0
    1488:	22 0f       	add	r18, r18
    148a:	33 1f       	adc	r19, r19
    148c:	22 0f       	add	r18, r18
    148e:	33 1f       	adc	r19, r19
    1490:	ce 01       	movw	r24, r28
    1492:	01 96       	adiw	r24, 0x01	; 1
    1494:	04 e0       	ldi	r16, 0x04	; 4
    1496:	10 e0       	ldi	r17, 0x00	; 0
    1498:	0e 94 6f 05 	call	0xade	; 0xade <disk_readp>
    149c:	88 23       	and	r24, r24
    149e:	29 f5       	brne	.+74     	; 0x14ea <get_fat+0x1f8>
		return LD_DWORD(buf) & 0x0FFFFFFF;
    14a0:	8c 81       	ldd	r24, Y+4	; 0x04
    14a2:	90 e0       	ldi	r25, 0x00	; 0
    14a4:	a0 e0       	ldi	r26, 0x00	; 0
    14a6:	b0 e0       	ldi	r27, 0x00	; 0
    14a8:	58 2f       	mov	r21, r24
    14aa:	44 27       	eor	r20, r20
    14ac:	33 27       	eor	r19, r19
    14ae:	22 27       	eor	r18, r18
    14b0:	8b 81       	ldd	r24, Y+3	; 0x03
    14b2:	90 e0       	ldi	r25, 0x00	; 0
    14b4:	a0 e0       	ldi	r26, 0x00	; 0
    14b6:	b0 e0       	ldi	r27, 0x00	; 0
    14b8:	dc 01       	movw	r26, r24
    14ba:	99 27       	eor	r25, r25
    14bc:	88 27       	eor	r24, r24
    14be:	28 2b       	or	r18, r24
    14c0:	39 2b       	or	r19, r25
    14c2:	4a 2b       	or	r20, r26
    14c4:	5b 2b       	or	r21, r27
    14c6:	89 81       	ldd	r24, Y+1	; 0x01
    14c8:	90 e0       	ldi	r25, 0x00	; 0
    14ca:	a0 e0       	ldi	r26, 0x00	; 0
    14cc:	b0 e0       	ldi	r27, 0x00	; 0
    14ce:	28 2b       	or	r18, r24
    14d0:	39 2b       	or	r19, r25
    14d2:	4a 2b       	or	r20, r26
    14d4:	5b 2b       	or	r21, r27
    14d6:	9a 81       	ldd	r25, Y+2	; 0x02
    14d8:	80 e0       	ldi	r24, 0x00	; 0
    14da:	a0 e0       	ldi	r26, 0x00	; 0
    14dc:	b0 e0       	ldi	r27, 0x00	; 0
    14de:	28 2b       	or	r18, r24
    14e0:	39 2b       	or	r19, r25
    14e2:	4a 2b       	or	r20, r26
    14e4:	5b 2b       	or	r21, r27
    14e6:	5f 70       	andi	r21, 0x0F	; 15
    14e8:	04 c0       	rjmp	.+8      	; 0x14f2 <get_fat+0x200>
    14ea:	21 e0       	ldi	r18, 0x01	; 1
    14ec:	30 e0       	ldi	r19, 0x00	; 0
    14ee:	40 e0       	ldi	r20, 0x00	; 0
    14f0:	50 e0       	ldi	r21, 0x00	; 0
#endif
	}

	return 1;	/* An error occured at the disk I/O layer */
}
    14f2:	b9 01       	movw	r22, r18
    14f4:	ca 01       	movw	r24, r20
    14f6:	0f 90       	pop	r0
    14f8:	0f 90       	pop	r0
    14fa:	0f 90       	pop	r0
    14fc:	0f 90       	pop	r0
    14fe:	cf 91       	pop	r28
    1500:	df 91       	pop	r29
    1502:	1f 91       	pop	r17
    1504:	0f 91       	pop	r16
    1506:	ff 90       	pop	r15
    1508:	ef 90       	pop	r14
    150a:	df 90       	pop	r13
    150c:	cf 90       	pop	r12
    150e:	bf 90       	pop	r11
    1510:	af 90       	pop	r10
    1512:	9f 90       	pop	r9
    1514:	8f 90       	pop	r8
    1516:	7f 90       	pop	r7
    1518:	6f 90       	pop	r6
    151a:	08 95       	ret

0000151c <pf_lseek>:
#if _USE_LSEEK

FRESULT pf_lseek (
	DWORD ofs		/* File pointer from top of file */
)
{
    151c:	2f 92       	push	r2
    151e:	3f 92       	push	r3
    1520:	4f 92       	push	r4
    1522:	5f 92       	push	r5
    1524:	6f 92       	push	r6
    1526:	7f 92       	push	r7
    1528:	8f 92       	push	r8
    152a:	9f 92       	push	r9
    152c:	af 92       	push	r10
    152e:	bf 92       	push	r11
    1530:	cf 92       	push	r12
    1532:	df 92       	push	r13
    1534:	ef 92       	push	r14
    1536:	ff 92       	push	r15
    1538:	0f 93       	push	r16
    153a:	1f 93       	push	r17
    153c:	cf 93       	push	r28
    153e:	df 93       	push	r29
    1540:	e8 2f       	mov	r30, r24
	CLUST clst;
	DWORD bcs, sect, ifptr;
	FATFS *fs = FatFs;
    1542:	c0 91 00 02 	lds	r28, 0x0200
    1546:	d0 91 01 02 	lds	r29, 0x0201


	if (!fs) return FR_NOT_ENABLED;		/* Check file system */
    154a:	20 97       	sbiw	r28, 0x00	; 0
    154c:	11 f4       	brne	.+4      	; 0x1552 <pf_lseek+0x36>
    154e:	86 e0       	ldi	r24, 0x06	; 6
    1550:	02 c1       	rjmp	.+516    	; 0x1756 <pf_lseek+0x23a>
	if (!(fs->flag & FA_OPENED))		/* Check if opened */
    1552:	89 81       	ldd	r24, Y+1	; 0x01
    1554:	80 fd       	sbrc	r24, 0
    1556:	02 c0       	rjmp	.+4      	; 0x155c <pf_lseek+0x40>
    1558:	85 e0       	ldi	r24, 0x05	; 5
    155a:	fd c0       	rjmp	.+506    	; 0x1756 <pf_lseek+0x23a>
    155c:	ea 8c       	ldd	r14, Y+26	; 0x1a
    155e:	fb 8c       	ldd	r15, Y+27	; 0x1b
    1560:	0c 8d       	ldd	r16, Y+28	; 0x1c
    1562:	1d 8d       	ldd	r17, Y+29	; 0x1d
    1564:	4e 2f       	mov	r20, r30
    1566:	59 2f       	mov	r21, r25
    1568:	cb 01       	movw	r24, r22
    156a:	da 01       	movw	r26, r20
    156c:	3c 01       	movw	r6, r24
    156e:	4d 01       	movw	r8, r26
    1570:	e6 14       	cp	r14, r6
    1572:	f7 04       	cpc	r15, r7
    1574:	08 05       	cpc	r16, r8
    1576:	19 05       	cpc	r17, r9
    1578:	10 f4       	brcc	.+4      	; 0x157e <pf_lseek+0x62>
    157a:	37 01       	movw	r6, r14
    157c:	48 01       	movw	r8, r16
			return FR_NOT_OPENED;

	if (ofs > fs->fsize) ofs = fs->fsize;	/* Clip offset with the file size */
	ifptr = fs->fptr;
    157e:	ee 88       	ldd	r14, Y+22	; 0x16
    1580:	ff 88       	ldd	r15, Y+23	; 0x17
    1582:	08 8d       	ldd	r16, Y+24	; 0x18
    1584:	19 8d       	ldd	r17, Y+25	; 0x19
	fs->fptr = 0;
    1586:	1e 8a       	std	Y+22, r1	; 0x16
    1588:	1f 8a       	std	Y+23, r1	; 0x17
    158a:	18 8e       	std	Y+24, r1	; 0x18
    158c:	19 8e       	std	Y+25, r1	; 0x19
	if (ofs > 0) {
    158e:	61 14       	cp	r6, r1
    1590:	71 04       	cpc	r7, r1
    1592:	81 04       	cpc	r8, r1
    1594:	91 04       	cpc	r9, r1
    1596:	09 f4       	brne	.+2      	; 0x159a <pf_lseek+0x7e>
    1598:	da c0       	rjmp	.+436    	; 0x174e <pf_lseek+0x232>
		bcs = (DWORD)fs->csize * 512;	/* Cluster size (byte) */
    159a:	8a 81       	ldd	r24, Y+2	; 0x02
    159c:	a8 2e       	mov	r10, r24
    159e:	bb 24       	eor	r11, r11
    15a0:	cc 24       	eor	r12, r12
    15a2:	dd 24       	eor	r13, r13
    15a4:	e9 e0       	ldi	r30, 0x09	; 9
    15a6:	aa 0c       	add	r10, r10
    15a8:	bb 1c       	adc	r11, r11
    15aa:	cc 1c       	adc	r12, r12
    15ac:	dd 1c       	adc	r13, r13
    15ae:	ea 95       	dec	r30
    15b0:	d1 f7       	brne	.-12     	; 0x15a6 <pf_lseek+0x8a>
		if (ifptr > 0 &&
    15b2:	e1 14       	cp	r14, r1
    15b4:	f1 04       	cpc	r15, r1
    15b6:	01 05       	cpc	r16, r1
    15b8:	11 05       	cpc	r17, r1
    15ba:	b1 f1       	breq	.+108    	; 0x1628 <pf_lseek+0x10c>
    15bc:	17 01       	movw	r2, r14
    15be:	28 01       	movw	r4, r16
    15c0:	08 94       	sec
    15c2:	21 08       	sbc	r2, r1
    15c4:	31 08       	sbc	r3, r1
    15c6:	41 08       	sbc	r4, r1
    15c8:	51 08       	sbc	r5, r1
    15ca:	c4 01       	movw	r24, r8
    15cc:	b3 01       	movw	r22, r6
    15ce:	61 50       	subi	r22, 0x01	; 1
    15d0:	70 40       	sbci	r23, 0x00	; 0
    15d2:	80 40       	sbci	r24, 0x00	; 0
    15d4:	90 40       	sbci	r25, 0x00	; 0
    15d6:	a6 01       	movw	r20, r12
    15d8:	95 01       	movw	r18, r10
    15da:	0e 94 67 18 	call	0x30ce	; 0x30ce <__udivmodsi4>
    15de:	79 01       	movw	r14, r18
    15e0:	8a 01       	movw	r16, r20
    15e2:	c2 01       	movw	r24, r4
    15e4:	b1 01       	movw	r22, r2
    15e6:	a6 01       	movw	r20, r12
    15e8:	95 01       	movw	r18, r10
    15ea:	0e 94 67 18 	call	0x30ce	; 0x30ce <__udivmodsi4>
    15ee:	e2 16       	cp	r14, r18
    15f0:	f3 06       	cpc	r15, r19
    15f2:	04 07       	cpc	r16, r20
    15f4:	15 07       	cpc	r17, r21
    15f6:	c0 f0       	brcs	.+48     	; 0x1628 <pf_lseek+0x10c>
			(ofs - 1) / bcs >= (ifptr - 1) / bcs) {	/* When seek to same or following cluster, */
			fs->fptr = (ifptr - 1) & ~(bcs - 1);	/* start from the current cluster */
    15f8:	88 27       	eor	r24, r24
    15fa:	99 27       	eor	r25, r25
    15fc:	dc 01       	movw	r26, r24
    15fe:	8a 19       	sub	r24, r10
    1600:	9b 09       	sbc	r25, r11
    1602:	ac 09       	sbc	r26, r12
    1604:	bd 09       	sbc	r27, r13
    1606:	82 21       	and	r24, r2
    1608:	93 21       	and	r25, r3
    160a:	a4 21       	and	r26, r4
    160c:	b5 21       	and	r27, r5
    160e:	8e 8b       	std	Y+22, r24	; 0x16
    1610:	9f 8b       	std	Y+23, r25	; 0x17
    1612:	a8 8f       	std	Y+24, r26	; 0x18
    1614:	b9 8f       	std	Y+25, r27	; 0x19
			ofs -= fs->fptr;
    1616:	68 1a       	sub	r6, r24
    1618:	79 0a       	sbc	r7, r25
    161a:	8a 0a       	sbc	r8, r26
    161c:	9b 0a       	sbc	r9, r27
			clst = fs->curr_clust;
    161e:	2a a1       	ldd	r18, Y+34	; 0x22
    1620:	3b a1       	ldd	r19, Y+35	; 0x23
    1622:	4c a1       	ldd	r20, Y+36	; 0x24
    1624:	5d a1       	ldd	r21, Y+37	; 0x25
    1626:	33 c0       	rjmp	.+102    	; 0x168e <pf_lseek+0x172>
		} else {							/* When seek to back cluster, */
			clst = fs->org_clust;			/* start from the first cluster */
    1628:	2e 8d       	ldd	r18, Y+30	; 0x1e
    162a:	3f 8d       	ldd	r19, Y+31	; 0x1f
    162c:	48 a1       	ldd	r20, Y+32	; 0x20
    162e:	59 a1       	ldd	r21, Y+33	; 0x21
			fs->curr_clust = clst;
    1630:	2a a3       	std	Y+34, r18	; 0x22
    1632:	3b a3       	std	Y+35, r19	; 0x23
    1634:	4c a3       	std	Y+36, r20	; 0x24
    1636:	5d a3       	std	Y+37, r21	; 0x25
    1638:	2a c0       	rjmp	.+84     	; 0x168e <pf_lseek+0x172>
		}
		while (ofs > bcs) {				/* Cluster following loop */
			clst = get_fat(clst);		/* Follow cluster chain */
    163a:	ca 01       	movw	r24, r20
    163c:	b9 01       	movw	r22, r18
    163e:	0e 94 79 09 	call	0x12f2	; 0x12f2 <get_fat>
    1642:	9b 01       	movw	r18, r22
    1644:	ac 01       	movw	r20, r24
			if (clst <= 1 || clst >= fs->n_fatent) goto fe_abort;
    1646:	62 30       	cpi	r22, 0x02	; 2
    1648:	71 05       	cpc	r23, r1
    164a:	81 05       	cpc	r24, r1
    164c:	91 05       	cpc	r25, r1
    164e:	08 f4       	brcc	.+2      	; 0x1652 <pf_lseek+0x136>
    1650:	80 c0       	rjmp	.+256    	; 0x1752 <pf_lseek+0x236>
    1652:	8e 81       	ldd	r24, Y+6	; 0x06
    1654:	9f 81       	ldd	r25, Y+7	; 0x07
    1656:	a8 85       	ldd	r26, Y+8	; 0x08
    1658:	b9 85       	ldd	r27, Y+9	; 0x09
    165a:	28 17       	cp	r18, r24
    165c:	39 07       	cpc	r19, r25
    165e:	4a 07       	cpc	r20, r26
    1660:	5b 07       	cpc	r21, r27
    1662:	08 f0       	brcs	.+2      	; 0x1666 <pf_lseek+0x14a>
    1664:	76 c0       	rjmp	.+236    	; 0x1752 <pf_lseek+0x236>
			fs->curr_clust = clst;
    1666:	2a a3       	std	Y+34, r18	; 0x22
    1668:	3b a3       	std	Y+35, r19	; 0x23
    166a:	4c a3       	std	Y+36, r20	; 0x24
    166c:	5d a3       	std	Y+37, r21	; 0x25
			fs->fptr += bcs;
    166e:	8e 89       	ldd	r24, Y+22	; 0x16
    1670:	9f 89       	ldd	r25, Y+23	; 0x17
    1672:	a8 8d       	ldd	r26, Y+24	; 0x18
    1674:	b9 8d       	ldd	r27, Y+25	; 0x19
    1676:	8a 0d       	add	r24, r10
    1678:	9b 1d       	adc	r25, r11
    167a:	ac 1d       	adc	r26, r12
    167c:	bd 1d       	adc	r27, r13
    167e:	8e 8b       	std	Y+22, r24	; 0x16
    1680:	9f 8b       	std	Y+23, r25	; 0x17
    1682:	a8 8f       	std	Y+24, r26	; 0x18
    1684:	b9 8f       	std	Y+25, r27	; 0x19
			ofs -= bcs;
    1686:	6a 18       	sub	r6, r10
    1688:	7b 08       	sbc	r7, r11
    168a:	8c 08       	sbc	r8, r12
    168c:	9d 08       	sbc	r9, r13
			clst = fs->curr_clust;
		} else {							/* When seek to back cluster, */
			clst = fs->org_clust;			/* start from the first cluster */
			fs->curr_clust = clst;
		}
		while (ofs > bcs) {				/* Cluster following loop */
    168e:	a6 14       	cp	r10, r6
    1690:	b7 04       	cpc	r11, r7
    1692:	c8 04       	cpc	r12, r8
    1694:	d9 04       	cpc	r13, r9
    1696:	88 f2       	brcs	.-94     	; 0x163a <pf_lseek+0x11e>
			if (clst <= 1 || clst >= fs->n_fatent) goto fe_abort;
			fs->curr_clust = clst;
			fs->fptr += bcs;
			ofs -= bcs;
		}
		fs->fptr += ofs;
    1698:	ee 88       	ldd	r14, Y+22	; 0x16
    169a:	ff 88       	ldd	r15, Y+23	; 0x17
    169c:	08 8d       	ldd	r16, Y+24	; 0x18
    169e:	19 8d       	ldd	r17, Y+25	; 0x19
    16a0:	e6 0c       	add	r14, r6
    16a2:	f7 1c       	adc	r15, r7
    16a4:	08 1d       	adc	r16, r8
    16a6:	19 1d       	adc	r17, r9
    16a8:	ee 8a       	std	Y+22, r14	; 0x16
    16aa:	ff 8a       	std	Y+23, r15	; 0x17
    16ac:	08 8f       	std	Y+24, r16	; 0x18
    16ae:	19 8f       	std	Y+25, r17	; 0x19
static
DWORD clust2sect (	/* !=0: Sector number, 0: Failed - invalid cluster# */
	CLUST clst		/* Cluster# to be converted */
)
{
	FATFS *fs = FatFs;
    16b0:	80 90 00 02 	lds	r8, 0x0200
    16b4:	90 90 01 02 	lds	r9, 0x0201


	clst -= 2;
    16b8:	7e ef       	ldi	r23, 0xFE	; 254
    16ba:	a7 2e       	mov	r10, r23
    16bc:	7f ef       	ldi	r23, 0xFF	; 255
    16be:	b7 2e       	mov	r11, r23
    16c0:	7f ef       	ldi	r23, 0xFF	; 255
    16c2:	c7 2e       	mov	r12, r23
    16c4:	7f ef       	ldi	r23, 0xFF	; 255
    16c6:	d7 2e       	mov	r13, r23
    16c8:	a2 0e       	add	r10, r18
    16ca:	b3 1e       	adc	r11, r19
    16cc:	c4 1e       	adc	r12, r20
    16ce:	d5 1e       	adc	r13, r21
	if (clst >= (fs->n_fatent - 2)) return 0;		/* Invalid cluster# */
    16d0:	f4 01       	movw	r30, r8
    16d2:	86 81       	ldd	r24, Z+6	; 0x06
    16d4:	97 81       	ldd	r25, Z+7	; 0x07
    16d6:	a0 85       	ldd	r26, Z+8	; 0x08
    16d8:	b1 85       	ldd	r27, Z+9	; 0x09
    16da:	02 97       	sbiw	r24, 0x02	; 2
    16dc:	a1 09       	sbc	r26, r1
    16de:	b1 09       	sbc	r27, r1
    16e0:	a8 16       	cp	r10, r24
    16e2:	b9 06       	cpc	r11, r25
    16e4:	ca 06       	cpc	r12, r26
    16e6:	db 06       	cpc	r13, r27
    16e8:	a0 f5       	brcc	.+104    	; 0x1752 <pf_lseek+0x236>
	return (DWORD)clst * fs->csize + fs->database;
    16ea:	22 81       	ldd	r18, Z+2	; 0x02
    16ec:	30 e0       	ldi	r19, 0x00	; 0
    16ee:	40 e0       	ldi	r20, 0x00	; 0
    16f0:	50 e0       	ldi	r21, 0x00	; 0
    16f2:	c6 01       	movw	r24, r12
    16f4:	b5 01       	movw	r22, r10
    16f6:	0e 94 29 18 	call	0x3052	; 0x3052 <__mulsi3>
    16fa:	9b 01       	movw	r18, r22
    16fc:	ac 01       	movw	r20, r24
    16fe:	f4 01       	movw	r30, r8
    1700:	82 89       	ldd	r24, Z+18	; 0x12
    1702:	93 89       	ldd	r25, Z+19	; 0x13
    1704:	a4 89       	ldd	r26, Z+20	; 0x14
    1706:	b5 89       	ldd	r27, Z+21	; 0x15
    1708:	28 0f       	add	r18, r24
    170a:	39 1f       	adc	r19, r25
    170c:	4a 1f       	adc	r20, r26
    170e:	5b 1f       	adc	r21, r27
			fs->fptr += bcs;
			ofs -= bcs;
		}
		fs->fptr += ofs;
		sect = clust2sect(clst);		/* Current sector */
		if (!sect) goto fe_abort;
    1710:	21 15       	cp	r18, r1
    1712:	31 05       	cpc	r19, r1
    1714:	41 05       	cpc	r20, r1
    1716:	51 05       	cpc	r21, r1
    1718:	e1 f0       	breq	.+56     	; 0x1752 <pf_lseek+0x236>
		fs->dsect = sect + (fs->fptr / 512 & (fs->csize - 1));
    171a:	69 e0       	ldi	r22, 0x09	; 9
    171c:	16 95       	lsr	r17
    171e:	07 95       	ror	r16
    1720:	f7 94       	ror	r15
    1722:	e7 94       	ror	r14
    1724:	6a 95       	dec	r22
    1726:	d1 f7       	brne	.-12     	; 0x171c <pf_lseek+0x200>
    1728:	8a 81       	ldd	r24, Y+2	; 0x02
    172a:	90 e0       	ldi	r25, 0x00	; 0
    172c:	01 97       	sbiw	r24, 0x01	; 1
    172e:	aa 27       	eor	r26, r26
    1730:	97 fd       	sbrc	r25, 7
    1732:	a0 95       	com	r26
    1734:	ba 2f       	mov	r27, r26
    1736:	e8 22       	and	r14, r24
    1738:	f9 22       	and	r15, r25
    173a:	0a 23       	and	r16, r26
    173c:	1b 23       	and	r17, r27
    173e:	2e 0d       	add	r18, r14
    1740:	3f 1d       	adc	r19, r15
    1742:	40 1f       	adc	r20, r16
    1744:	51 1f       	adc	r21, r17
    1746:	2e a3       	std	Y+38, r18	; 0x26
    1748:	3f a3       	std	Y+39, r19	; 0x27
    174a:	48 a7       	std	Y+40, r20	; 0x28
    174c:	59 a7       	std	Y+41, r21	; 0x29
    174e:	80 e0       	ldi	r24, 0x00	; 0
    1750:	02 c0       	rjmp	.+4      	; 0x1756 <pf_lseek+0x23a>
	}

	return FR_OK;

fe_abort:
	fs->flag = 0;
    1752:	19 82       	std	Y+1, r1	; 0x01
    1754:	81 e0       	ldi	r24, 0x01	; 1
	return FR_DISK_ERR;
}
    1756:	df 91       	pop	r29
    1758:	cf 91       	pop	r28
    175a:	1f 91       	pop	r17
    175c:	0f 91       	pop	r16
    175e:	ff 90       	pop	r15
    1760:	ef 90       	pop	r14
    1762:	df 90       	pop	r13
    1764:	cf 90       	pop	r12
    1766:	bf 90       	pop	r11
    1768:	af 90       	pop	r10
    176a:	9f 90       	pop	r9
    176c:	8f 90       	pop	r8
    176e:	7f 90       	pop	r7
    1770:	6f 90       	pop	r6
    1772:	5f 90       	pop	r5
    1774:	4f 90       	pop	r4
    1776:	3f 90       	pop	r3
    1778:	2f 90       	pop	r2
    177a:	08 95       	ret

0000177c <pf_open>:
/*-----------------------------------------------------------------------*/

FRESULT pf_open (
	const char *path	/* Pointer to the file name */
)
{
    177c:	2f 92       	push	r2
    177e:	3f 92       	push	r3
    1780:	4f 92       	push	r4
    1782:	5f 92       	push	r5
    1784:	6f 92       	push	r6
    1786:	7f 92       	push	r7
    1788:	8f 92       	push	r8
    178a:	9f 92       	push	r9
    178c:	af 92       	push	r10
    178e:	bf 92       	push	r11
    1790:	cf 92       	push	r12
    1792:	df 92       	push	r13
    1794:	ef 92       	push	r14
    1796:	ff 92       	push	r15
    1798:	0f 93       	push	r16
    179a:	1f 93       	push	r17
    179c:	df 93       	push	r29
    179e:	cf 93       	push	r28
    17a0:	cd b7       	in	r28, 0x3d	; 61
    17a2:	de b7       	in	r29, 0x3e	; 62
    17a4:	ef 97       	sbiw	r28, 0x3f	; 63
    17a6:	0f b6       	in	r0, 0x3f	; 63
    17a8:	f8 94       	cli
    17aa:	de bf       	out	0x3e, r29	; 62
    17ac:	0f be       	out	0x3f, r0	; 63
    17ae:	cd bf       	out	0x3d, r28	; 61
    17b0:	4c 01       	movw	r8, r24
	FRESULT res;
	DIR dj;
	BYTE sp[12], dir[32];
	FATFS *fs = FatFs;
    17b2:	20 90 00 02 	lds	r2, 0x0200
    17b6:	30 90 01 02 	lds	r3, 0x0201


	if (!fs)						/* Check file system */
    17ba:	21 14       	cp	r2, r1
    17bc:	31 04       	cpc	r3, r1
    17be:	11 f4       	brne	.+4      	; 0x17c4 <pf_open+0x48>
    17c0:	96 e0       	ldi	r25, 0x06	; 6
    17c2:	b5 c1       	rjmp	.+874    	; 0x1b2e <pf_open+0x3b2>
		return FR_NOT_ENABLED;

	fs->flag = 0;
    17c4:	f1 01       	movw	r30, r2
    17c6:	11 82       	std	Z+1, r1	; 0x01
	dj.fn = sp;
    17c8:	ce 01       	movw	r24, r28
    17ca:	01 96       	adiw	r24, 0x01	; 1
    17cc:	98 8b       	std	Y+16, r25	; 0x10
    17ce:	8f 87       	std	Y+15, r24	; 0x0f
    17d0:	03 c0       	rjmp	.+6      	; 0x17d8 <pf_open+0x5c>
)
{
	FRESULT res;


	while (*path == ' ') path++;		/* Skip leading spaces */
    17d2:	08 94       	sec
    17d4:	81 1c       	adc	r8, r1
    17d6:	91 1c       	adc	r9, r1
    17d8:	f4 01       	movw	r30, r8
    17da:	80 81       	ld	r24, Z
    17dc:	80 32       	cpi	r24, 0x20	; 32
    17de:	c9 f3       	breq	.-14     	; 0x17d2 <pf_open+0x56>
	if (*path == '/') path++;			/* Strip heading separator */
    17e0:	8f 32       	cpi	r24, 0x2F	; 47
    17e2:	19 f4       	brne	.+6      	; 0x17ea <pf_open+0x6e>
    17e4:	08 94       	sec
    17e6:	81 1c       	adc	r8, r1
    17e8:	91 1c       	adc	r9, r1
	dj->sclust = 0;						/* Set start directory (always root dir) */
    17ea:	19 8a       	std	Y+17, r1	; 0x11
    17ec:	1a 8a       	std	Y+18, r1	; 0x12
    17ee:	1b 8a       	std	Y+19, r1	; 0x13
    17f0:	1c 8a       	std	Y+20, r1	; 0x14

	if ((BYTE)*path <= ' ') {			/* Null path means the root directory */
    17f2:	f4 01       	movw	r30, r8
    17f4:	80 81       	ld	r24, Z
    17f6:	81 32       	cpi	r24, 0x21	; 33
    17f8:	50 f4       	brcc	.+20     	; 0x180e <pf_open+0x92>
		res = dir_rewind(dj);
    17fa:	ce 01       	movw	r24, r28
    17fc:	0d 96       	adiw	r24, 0x0d	; 13
    17fe:	0e 94 fa 08 	call	0x11f4	; 0x11f4 <dir_rewind>
    1802:	98 2f       	mov	r25, r24
		dir[0] = 0;
    1804:	1d 8e       	std	Y+29, r1	; 0x1d
		return FR_NOT_ENABLED;

	fs->flag = 0;
	dj.fn = sp;
	res = follow_path(&dj, dir, path);	/* Follow the file path */
	if (res != FR_OK) return res;		/* Follow failed */
    1806:	88 23       	and	r24, r24
    1808:	09 f4       	brne	.+2      	; 0x180c <pf_open+0x90>
    180a:	3e c1       	rjmp	.+636    	; 0x1a88 <pf_open+0x30c>
    180c:	90 c1       	rjmp	.+800    	; 0x1b2e <pf_open+0x3b2>
/* Compare memory to memory */
static
int mem_cmp (const void* dst, const void* src, int cnt) {
	const char *d = (const char *)dst, *s = (const char *)src;
	int r = 0;
	while (cnt-- && (r = *d++ - *s++) == 0) ;
    180e:	ce 01       	movw	r24, r28
    1810:	88 96       	adiw	r24, 0x28	; 40
    1812:	9f af       	std	Y+63, r25	; 0x3f
    1814:	8e af       	std	Y+62, r24	; 0x3e
{
	BYTE c, d, ni, si, i, *sfn;
	const char *p;

	/* Create file name in directory form */
	sfn = dj->fn;
    1816:	af 85       	ldd	r26, Y+15	; 0x0f
    1818:	b8 89       	ldd	r27, Y+16	; 0x10
    181a:	fd 01       	movw	r30, r26
    181c:	8b e0       	ldi	r24, 0x0B	; 11
    181e:	90 e0       	ldi	r25, 0x00	; 0
    1820:	02 c0       	rjmp	.+4      	; 0x1826 <pf_open+0xaa>

/* Fill memory */
static
void mem_set (void* dst, int val, int cnt) {
	char *d = (char*)dst;
	while (cnt--) *d++ = (char)val;
    1822:	20 e2       	ldi	r18, 0x20	; 32
    1824:	21 93       	st	Z+, r18
    1826:	01 97       	sbiw	r24, 0x01	; 1
    1828:	2f ef       	ldi	r18, 0xFF	; 255
    182a:	8f 3f       	cpi	r24, 0xFF	; 255
    182c:	92 07       	cpc	r25, r18
    182e:	c9 f7       	brne	.-14     	; 0x1822 <pf_open+0xa6>
    1830:	38 e0       	ldi	r19, 0x08	; 8
    1832:	1d ae       	std	Y+61, r1	; 0x3d
    1834:	20 e0       	ldi	r18, 0x00	; 0
    1836:	02 c0       	rjmp	.+4      	; 0x183c <pf_open+0xc0>
    1838:	3b e0       	ldi	r19, 0x0B	; 11
    183a:	28 e0       	ldi	r18, 0x08	; 8
	sfn = dj->fn;
	mem_set(sfn, ' ', 11);
	si = i = 0; ni = 8;
	p = *path;
	for (;;) {
		c = p[si++];
    183c:	f4 01       	movw	r30, r8
    183e:	8d ad       	ldd	r24, Y+61	; 0x3d
    1840:	e8 0f       	add	r30, r24
    1842:	f1 1d       	adc	r31, r1
    1844:	90 81       	ld	r25, Z
    1846:	8f 5f       	subi	r24, 0xFF	; 255
    1848:	8d af       	std	Y+61, r24	; 0x3d
		if (c <= ' ' || c == '/') break;	/* Break on end of segment */
    184a:	91 32       	cpi	r25, 0x21	; 33
    184c:	b0 f0       	brcs	.+44     	; 0x187a <pf_open+0xfe>
    184e:	9f 32       	cpi	r25, 0x2F	; 47
    1850:	a1 f0       	breq	.+40     	; 0x187a <pf_open+0xfe>
		if (c == '.' || i >= ni) {
    1852:	9e 32       	cpi	r25, 0x2E	; 46
    1854:	11 f0       	breq	.+4      	; 0x185a <pf_open+0xde>
    1856:	23 17       	cp	r18, r19
    1858:	28 f0       	brcs	.+10     	; 0x1864 <pf_open+0xe8>
			if (ni != 8 || c != '.') break;
    185a:	38 30       	cpi	r19, 0x08	; 8
    185c:	71 f4       	brne	.+28     	; 0x187a <pf_open+0xfe>
    185e:	9e 32       	cpi	r25, 0x2E	; 46
    1860:	59 f3       	breq	.-42     	; 0x1838 <pf_open+0xbc>
    1862:	0b c0       	rjmp	.+22     	; 0x187a <pf_open+0xfe>
		if (IsDBCS1(c) && i < ni - 1) {	/* DBC 1st byte? */
			d = p[si++];				/* Get 2nd byte */
			sfn[i++] = c;
			sfn[i++] = d;
		} else {						/* Single byte code */
			if (IsLower(c)) c -= 0x20;	/* toupper */
    1864:	89 2f       	mov	r24, r25
    1866:	81 56       	subi	r24, 0x61	; 97
    1868:	8a 31       	cpi	r24, 0x1A	; 26
    186a:	08 f4       	brcc	.+2      	; 0x186e <pf_open+0xf2>
    186c:	90 52       	subi	r25, 0x20	; 32
			sfn[i++] = c;
    186e:	fd 01       	movw	r30, r26
    1870:	e2 0f       	add	r30, r18
    1872:	f1 1d       	adc	r31, r1
    1874:	90 83       	st	Z, r25
    1876:	2f 5f       	subi	r18, 0xFF	; 255
    1878:	e1 cf       	rjmp	.-62     	; 0x183c <pf_open+0xc0>
		}
	}
	*path = &p[si];						/* Rerurn pointer to the next segment */

	sfn[11] = (c <= ' ') ? 1 : 0;		/* Set last segment flag if end of path */
    187a:	1b 96       	adiw	r26, 0x0b	; 11
    187c:	1c 92       	st	X, r1
    187e:	1b 97       	sbiw	r26, 0x0b	; 11
    1880:	91 32       	cpi	r25, 0x21	; 33
    1882:	18 f4       	brcc	.+6      	; 0x188a <pf_open+0x10e>
    1884:	91 e0       	ldi	r25, 0x01	; 1
    1886:	1b 96       	adiw	r26, 0x0b	; 11
    1888:	9c 93       	st	X, r25
{
	FRESULT res;
	BYTE c;


	res = dir_rewind(dj);			/* Rewind directory object */
    188a:	ce 01       	movw	r24, r28
    188c:	0d 96       	adiw	r24, 0x0d	; 13
    188e:	0e 94 fa 08 	call	0x11f4	; 0x11f4 <dir_rewind>
    1892:	98 2f       	mov	r25, r24
	if (res != FR_OK) return res;
    1894:	88 23       	and	r24, r24
    1896:	09 f0       	breq	.+2      	; 0x189a <pf_open+0x11e>
    1898:	cc c0       	rjmp	.+408    	; 0x1a32 <pf_open+0x2b6>

	do {
		res = disk_readp(dir, dj->sect, (WORD)((dj->index % 16) * 32), 32)	/* Read an entry */
    189a:	49 8d       	ldd	r20, Y+25	; 0x19
    189c:	5a 8d       	ldd	r21, Y+26	; 0x1a
    189e:	6b 8d       	ldd	r22, Y+27	; 0x1b
    18a0:	7c 8d       	ldd	r23, Y+28	; 0x1c
    18a2:	2d 85       	ldd	r18, Y+13	; 0x0d
    18a4:	3e 85       	ldd	r19, Y+14	; 0x0e
    18a6:	2f 70       	andi	r18, 0x0F	; 15
    18a8:	30 70       	andi	r19, 0x00	; 0
    18aa:	f5 e0       	ldi	r31, 0x05	; 5
    18ac:	22 0f       	add	r18, r18
    18ae:	33 1f       	adc	r19, r19
    18b0:	fa 95       	dec	r31
    18b2:	e1 f7       	brne	.-8      	; 0x18ac <pf_open+0x130>
    18b4:	ce 01       	movw	r24, r28
    18b6:	4d 96       	adiw	r24, 0x1d	; 29
    18b8:	00 e2       	ldi	r16, 0x20	; 32
    18ba:	10 e0       	ldi	r17, 0x00	; 0
    18bc:	0e 94 6f 05 	call	0xade	; 0xade <disk_readp>
			? FR_DISK_ERR : FR_OK;
		if (res != FR_OK) break;
    18c0:	88 23       	and	r24, r24
    18c2:	09 f0       	breq	.+2      	; 0x18c6 <pf_open+0x14a>
    18c4:	58 c1       	rjmp	.+688    	; 0x1b76 <pf_open+0x3fa>
		c = dir[DIR_Name];	/* First character */
		if (c == 0) { res = FR_NO_FILE; break; }	/* Reached to end of table */
    18c6:	8d 8d       	ldd	r24, Y+29	; 0x1d
    18c8:	88 23       	and	r24, r24
    18ca:	09 f4       	brne	.+2      	; 0x18ce <pf_open+0x152>
    18cc:	4a c1       	rjmp	.+660    	; 0x1b62 <pf_open+0x3e6>
		if (!(dir[DIR_Attr] & AM_VOL) && !mem_cmp(dir, dj->fn, 11)) /* Is it a valid entry? */
    18ce:	48 a5       	ldd	r20, Y+40	; 0x28
    18d0:	43 fd       	sbrc	r20, 3
    18d2:	12 c0       	rjmp	.+36     	; 0x18f8 <pf_open+0x17c>
    18d4:	2f 85       	ldd	r18, Y+15	; 0x0f
    18d6:	38 89       	ldd	r19, Y+16	; 0x10
    18d8:	d9 01       	movw	r26, r18
    18da:	fe 01       	movw	r30, r28
    18dc:	7d 96       	adiw	r30, 0x1d	; 29
/* Compare memory to memory */
static
int mem_cmp (const void* dst, const void* src, int cnt) {
	const char *d = (const char *)dst, *s = (const char *)src;
	int r = 0;
	while (cnt-- && (r = *d++ - *s++) == 0) ;
    18de:	8e ad       	ldd	r24, Y+62	; 0x3e
    18e0:	9f ad       	ldd	r25, Y+63	; 0x3f
    18e2:	e8 17       	cp	r30, r24
    18e4:	f9 07       	cpc	r31, r25
    18e6:	09 f4       	brne	.+2      	; 0x18ea <pf_open+0x16e>
    18e8:	3e c1       	rjmp	.+636    	; 0x1b66 <pf_open+0x3ea>
    18ea:	90 81       	ld	r25, Z
    18ec:	8c 91       	ld	r24, X
    18ee:	98 17       	cp	r25, r24
    18f0:	19 f4       	brne	.+6      	; 0x18f8 <pf_open+0x17c>
    18f2:	31 96       	adiw	r30, 0x01	; 1
    18f4:	11 96       	adiw	r26, 0x01	; 1
    18f6:	f3 cf       	rjmp	.-26     	; 0x18de <pf_open+0x162>
	DIR *dj			/* Pointer to directory object */
)
{
	CLUST clst;
	WORD i;
	FATFS *fs = FatFs;
    18f8:	00 91 00 02 	lds	r16, 0x0200
    18fc:	10 91 01 02 	lds	r17, 0x0201


	i = dj->index + 1;
    1900:	ad 84       	ldd	r10, Y+13	; 0x0d
    1902:	be 84       	ldd	r11, Y+14	; 0x0e
    1904:	08 94       	sec
    1906:	a1 1c       	adc	r10, r1
    1908:	b1 1c       	adc	r11, r1
	if (!i || !dj->sect)	/* Report EOT when index has reached 65535 */
    190a:	a1 14       	cp	r10, r1
    190c:	b1 04       	cpc	r11, r1
    190e:	09 f4       	brne	.+2      	; 0x1912 <pf_open+0x196>
    1910:	28 c1       	rjmp	.+592    	; 0x1b62 <pf_open+0x3e6>
    1912:	29 8d       	ldd	r18, Y+25	; 0x19
    1914:	3a 8d       	ldd	r19, Y+26	; 0x1a
    1916:	4b 8d       	ldd	r20, Y+27	; 0x1b
    1918:	5c 8d       	ldd	r21, Y+28	; 0x1c
    191a:	21 15       	cp	r18, r1
    191c:	31 05       	cpc	r19, r1
    191e:	41 05       	cpc	r20, r1
    1920:	51 05       	cpc	r21, r1
    1922:	09 f4       	brne	.+2      	; 0x1926 <pf_open+0x1aa>
    1924:	1e c1       	rjmp	.+572    	; 0x1b62 <pf_open+0x3e6>
		return FR_NO_FILE;

	if (!(i % 16)) {		/* Sector changed? */
    1926:	c5 01       	movw	r24, r10
    1928:	8f 70       	andi	r24, 0x0F	; 15
    192a:	90 70       	andi	r25, 0x00	; 0
    192c:	89 2b       	or	r24, r25
    192e:	09 f0       	breq	.+2      	; 0x1932 <pf_open+0x1b6>
    1930:	7d c0       	rjmp	.+250    	; 0x1a2c <pf_open+0x2b0>
		dj->sect++;			/* Next sector */
    1932:	2f 5f       	subi	r18, 0xFF	; 255
    1934:	3f 4f       	sbci	r19, 0xFF	; 255
    1936:	4f 4f       	sbci	r20, 0xFF	; 255
    1938:	5f 4f       	sbci	r21, 0xFF	; 255
    193a:	29 8f       	std	Y+25, r18	; 0x19
    193c:	3a 8f       	std	Y+26, r19	; 0x1a
    193e:	4b 8f       	std	Y+27, r20	; 0x1b
    1940:	5c 8f       	std	Y+28, r21	; 0x1c

		if (dj->clust == 0) {	/* Static table */
    1942:	4d 89       	ldd	r20, Y+21	; 0x15
    1944:	5e 89       	ldd	r21, Y+22	; 0x16
    1946:	6f 89       	ldd	r22, Y+23	; 0x17
    1948:	78 8d       	ldd	r23, Y+24	; 0x18
    194a:	41 15       	cp	r20, r1
    194c:	51 05       	cpc	r21, r1
    194e:	61 05       	cpc	r22, r1
    1950:	71 05       	cpc	r23, r1
    1952:	41 f4       	brne	.+16     	; 0x1964 <pf_open+0x1e8>
			if (i >= fs->n_rootdir)	/* Report EOT when end of table */
    1954:	f8 01       	movw	r30, r16
    1956:	84 81       	ldd	r24, Z+4	; 0x04
    1958:	95 81       	ldd	r25, Z+5	; 0x05
    195a:	a8 16       	cp	r10, r24
    195c:	b9 06       	cpc	r11, r25
    195e:	08 f0       	brcs	.+2      	; 0x1962 <pf_open+0x1e6>
    1960:	00 c1       	rjmp	.+512    	; 0x1b62 <pf_open+0x3e6>
    1962:	64 c0       	rjmp	.+200    	; 0x1a2c <pf_open+0x2b0>
				return FR_NO_FILE;
		}
		else {					/* Dynamic table */
			if (((i / 16) & (fs->csize-1)) == 0) {	/* Cluster changed? */
    1964:	f8 01       	movw	r30, r16
    1966:	82 81       	ldd	r24, Z+2	; 0x02
    1968:	90 e0       	ldi	r25, 0x00	; 0
    196a:	01 97       	sbiw	r24, 0x01	; 1
    196c:	95 01       	movw	r18, r10
    196e:	e4 e0       	ldi	r30, 0x04	; 4
    1970:	36 95       	lsr	r19
    1972:	27 95       	ror	r18
    1974:	ea 95       	dec	r30
    1976:	e1 f7       	brne	.-8      	; 0x1970 <pf_open+0x1f4>
    1978:	82 23       	and	r24, r18
    197a:	93 23       	and	r25, r19
    197c:	89 2b       	or	r24, r25
    197e:	09 f0       	breq	.+2      	; 0x1982 <pf_open+0x206>
    1980:	55 c0       	rjmp	.+170    	; 0x1a2c <pf_open+0x2b0>
				clst = get_fat(dj->clust);		/* Get next cluster */
    1982:	cb 01       	movw	r24, r22
    1984:	ba 01       	movw	r22, r20
    1986:	0e 94 79 09 	call	0x12f2	; 0x12f2 <get_fat>
    198a:	9b 01       	movw	r18, r22
    198c:	ac 01       	movw	r20, r24
				if (clst <= 1) return FR_DISK_ERR;
    198e:	62 30       	cpi	r22, 0x02	; 2
    1990:	71 05       	cpc	r23, r1
    1992:	81 05       	cpc	r24, r1
    1994:	91 05       	cpc	r25, r1
    1996:	08 f4       	brcc	.+2      	; 0x199a <pf_open+0x21e>
    1998:	ee c0       	rjmp	.+476    	; 0x1b76 <pf_open+0x3fa>
				if (clst >= fs->n_fatent)		/* When it reached end of dynamic table */
    199a:	f8 01       	movw	r30, r16
    199c:	86 81       	ldd	r24, Z+6	; 0x06
    199e:	97 81       	ldd	r25, Z+7	; 0x07
    19a0:	a0 85       	ldd	r26, Z+8	; 0x08
    19a2:	b1 85       	ldd	r27, Z+9	; 0x09
    19a4:	28 17       	cp	r18, r24
    19a6:	39 07       	cpc	r19, r25
    19a8:	4a 07       	cpc	r20, r26
    19aa:	5b 07       	cpc	r21, r27
    19ac:	08 f0       	brcs	.+2      	; 0x19b0 <pf_open+0x234>
    19ae:	d9 c0       	rjmp	.+434    	; 0x1b62 <pf_open+0x3e6>
					return FR_NO_FILE;			/* Report EOT */
				dj->clust = clst;				/* Initialize data for new cluster */
    19b0:	2d 8b       	std	Y+21, r18	; 0x15
    19b2:	3e 8b       	std	Y+22, r19	; 0x16
    19b4:	4f 8b       	std	Y+23, r20	; 0x17
    19b6:	58 8f       	std	Y+24, r21	; 0x18
static
DWORD clust2sect (	/* !=0: Sector number, 0: Failed - invalid cluster# */
	CLUST clst		/* Cluster# to be converted */
)
{
	FATFS *fs = FatFs;
    19b8:	c0 90 00 02 	lds	r12, 0x0200
    19bc:	d0 90 01 02 	lds	r13, 0x0201


	clst -= 2;
    19c0:	6e ef       	ldi	r22, 0xFE	; 254
    19c2:	e6 2e       	mov	r14, r22
    19c4:	6f ef       	ldi	r22, 0xFF	; 255
    19c6:	f6 2e       	mov	r15, r22
    19c8:	6f ef       	ldi	r22, 0xFF	; 255
    19ca:	06 2f       	mov	r16, r22
    19cc:	6f ef       	ldi	r22, 0xFF	; 255
    19ce:	16 2f       	mov	r17, r22
    19d0:	e2 0e       	add	r14, r18
    19d2:	f3 1e       	adc	r15, r19
    19d4:	04 1f       	adc	r16, r20
    19d6:	15 1f       	adc	r17, r21
	if (clst >= (fs->n_fatent - 2)) return 0;		/* Invalid cluster# */
    19d8:	f6 01       	movw	r30, r12
    19da:	86 81       	ldd	r24, Z+6	; 0x06
    19dc:	97 81       	ldd	r25, Z+7	; 0x07
    19de:	a0 85       	ldd	r26, Z+8	; 0x08
    19e0:	b1 85       	ldd	r27, Z+9	; 0x09
    19e2:	02 97       	sbiw	r24, 0x02	; 2
    19e4:	a1 09       	sbc	r26, r1
    19e6:	b1 09       	sbc	r27, r1
    19e8:	e8 16       	cp	r14, r24
    19ea:	f9 06       	cpc	r15, r25
    19ec:	0a 07       	cpc	r16, r26
    19ee:	1b 07       	cpc	r17, r27
    19f0:	28 f0       	brcs	.+10     	; 0x19fc <pf_open+0x280>
    19f2:	20 e0       	ldi	r18, 0x00	; 0
    19f4:	30 e0       	ldi	r19, 0x00	; 0
    19f6:	40 e0       	ldi	r20, 0x00	; 0
    19f8:	50 e0       	ldi	r21, 0x00	; 0
    19fa:	14 c0       	rjmp	.+40     	; 0x1a24 <pf_open+0x2a8>
	return (DWORD)clst * fs->csize + fs->database;
    19fc:	f6 01       	movw	r30, r12
    19fe:	22 81       	ldd	r18, Z+2	; 0x02
    1a00:	30 e0       	ldi	r19, 0x00	; 0
    1a02:	40 e0       	ldi	r20, 0x00	; 0
    1a04:	50 e0       	ldi	r21, 0x00	; 0
    1a06:	c8 01       	movw	r24, r16
    1a08:	b7 01       	movw	r22, r14
    1a0a:	0e 94 29 18 	call	0x3052	; 0x3052 <__mulsi3>
    1a0e:	9b 01       	movw	r18, r22
    1a10:	ac 01       	movw	r20, r24
    1a12:	f6 01       	movw	r30, r12
    1a14:	82 89       	ldd	r24, Z+18	; 0x12
    1a16:	93 89       	ldd	r25, Z+19	; 0x13
    1a18:	a4 89       	ldd	r26, Z+20	; 0x14
    1a1a:	b5 89       	ldd	r27, Z+21	; 0x15
    1a1c:	28 0f       	add	r18, r24
    1a1e:	39 1f       	adc	r19, r25
    1a20:	4a 1f       	adc	r20, r26
    1a22:	5b 1f       	adc	r21, r27
				clst = get_fat(dj->clust);		/* Get next cluster */
				if (clst <= 1) return FR_DISK_ERR;
				if (clst >= fs->n_fatent)		/* When it reached end of dynamic table */
					return FR_NO_FILE;			/* Report EOT */
				dj->clust = clst;				/* Initialize data for new cluster */
				dj->sect = clust2sect(clst);
    1a24:	29 8f       	std	Y+25, r18	; 0x19
    1a26:	3a 8f       	std	Y+26, r19	; 0x1a
    1a28:	4b 8f       	std	Y+27, r20	; 0x1b
    1a2a:	5c 8f       	std	Y+28, r21	; 0x1c
			}
		}
	}

	dj->index = i;
    1a2c:	be 86       	std	Y+14, r11	; 0x0e
    1a2e:	ad 86       	std	Y+13, r10	; 0x0d
    1a30:	34 cf       	rjmp	.-408    	; 0x189a <pf_open+0x11e>
		for (;;) {
			res = create_name(dj, &path);	/* Get a segment */
			if (res != FR_OK) break;
			res = dir_find(dj, dir);		/* Find it */
			if (res != FR_OK) {				/* Could not find the object */
				if (res == FR_NO_FILE && !*(dj->fn+11))
    1a32:	83 30       	cpi	r24, 0x03	; 3
    1a34:	09 f0       	breq	.+2      	; 0x1a38 <pf_open+0x2bc>
    1a36:	7b c0       	rjmp	.+246    	; 0x1b2e <pf_open+0x3b2>
    1a38:	ef 85       	ldd	r30, Y+15	; 0x0f
    1a3a:	f8 89       	ldd	r31, Y+16	; 0x10
    1a3c:	83 85       	ldd	r24, Z+11	; 0x0b
    1a3e:	88 23       	and	r24, r24
    1a40:	09 f4       	brne	.+2      	; 0x1a44 <pf_open+0x2c8>
    1a42:	97 c0       	rjmp	.+302    	; 0x1b72 <pf_open+0x3f6>
    1a44:	74 c0       	rjmp	.+232    	; 0x1b2e <pf_open+0x3b2>
					res = FR_NO_PATH;
				break;
			}
			if (*(dj->fn+11)) break;		/* Last segment match. Function completed. */
			if (!(dir[DIR_Attr] & AM_DIR)) { /* Cannot follow because it is a file */
    1a46:	44 ff       	sbrs	r20, 4
    1a48:	94 c0       	rjmp	.+296    	; 0x1b72 <pf_open+0x3f6>
		} else {						/* Single byte code */
			if (IsLower(c)) c -= 0x20;	/* toupper */
			sfn[i++] = c;
		}
	}
	*path = &p[si];						/* Rerurn pointer to the next segment */
    1a4a:	fd ad       	ldd	r31, Y+61	; 0x3d
    1a4c:	8f 0e       	add	r8, r31
    1a4e:	91 1c       	adc	r9, r1
			}
			if (*(dj->fn+11)) break;		/* Last segment match. Function completed. */
			if (!(dir[DIR_Attr] & AM_DIR)) { /* Cannot follow because it is a file */
				res = FR_NO_PATH; break;
			}
			dj->sclust = LD_CLUST(dir);
    1a50:	5a a8       	ldd	r5, Y+50	; 0x32
    1a52:	44 24       	eor	r4, r4
    1a54:	29 a9       	ldd	r18, Y+49	; 0x31
    1a56:	30 e0       	ldi	r19, 0x00	; 0
    1a58:	24 29       	or	r18, r4
    1a5a:	35 29       	or	r19, r5
    1a5c:	40 e0       	ldi	r20, 0x00	; 0
    1a5e:	50 e0       	ldi	r21, 0x00	; 0
    1a60:	a9 01       	movw	r20, r18
    1a62:	33 27       	eor	r19, r19
    1a64:	22 27       	eor	r18, r18
    1a66:	78 ac       	ldd	r7, Y+56	; 0x38
    1a68:	66 24       	eor	r6, r6
    1a6a:	8f a9       	ldd	r24, Y+55	; 0x37
    1a6c:	90 e0       	ldi	r25, 0x00	; 0
    1a6e:	86 29       	or	r24, r6
    1a70:	97 29       	or	r25, r7
    1a72:	a0 e0       	ldi	r26, 0x00	; 0
    1a74:	b0 e0       	ldi	r27, 0x00	; 0
    1a76:	28 2b       	or	r18, r24
    1a78:	39 2b       	or	r19, r25
    1a7a:	4a 2b       	or	r20, r26
    1a7c:	5b 2b       	or	r21, r27
    1a7e:	29 8b       	std	Y+17, r18	; 0x11
    1a80:	3a 8b       	std	Y+18, r19	; 0x12
    1a82:	4b 8b       	std	Y+19, r20	; 0x13
    1a84:	5c 8b       	std	Y+20, r21	; 0x14
    1a86:	c7 ce       	rjmp	.-626    	; 0x1816 <pf_open+0x9a>

	fs->flag = 0;
	dj.fn = sp;
	res = follow_path(&dj, dir, path);	/* Follow the file path */
	if (res != FR_OK) return res;		/* Follow failed */
	if (!dir[0] || (dir[DIR_Attr] & AM_DIR))	/* It is a directory */
    1a88:	8d 8d       	ldd	r24, Y+29	; 0x1d
    1a8a:	88 23       	and	r24, r24
    1a8c:	09 f4       	brne	.+2      	; 0x1a90 <pf_open+0x314>
    1a8e:	4e c0       	rjmp	.+156    	; 0x1b2c <pf_open+0x3b0>
    1a90:	88 a5       	ldd	r24, Y+40	; 0x28
    1a92:	84 fd       	sbrc	r24, 4
    1a94:	4b c0       	rjmp	.+150    	; 0x1b2c <pf_open+0x3b0>
		return FR_NO_FILE;

	fs->org_clust = LD_CLUST(dir);			/* File start cluster */
    1a96:	3a a9       	ldd	r19, Y+50	; 0x32
    1a98:	20 e0       	ldi	r18, 0x00	; 0
    1a9a:	89 a9       	ldd	r24, Y+49	; 0x31
    1a9c:	90 e0       	ldi	r25, 0x00	; 0
    1a9e:	28 2b       	or	r18, r24
    1aa0:	39 2b       	or	r19, r25
    1aa2:	40 e0       	ldi	r20, 0x00	; 0
    1aa4:	50 e0       	ldi	r21, 0x00	; 0
    1aa6:	a9 01       	movw	r20, r18
    1aa8:	33 27       	eor	r19, r19
    1aaa:	22 27       	eor	r18, r18
    1aac:	98 ad       	ldd	r25, Y+56	; 0x38
    1aae:	80 e0       	ldi	r24, 0x00	; 0
    1ab0:	6f a9       	ldd	r22, Y+55	; 0x37
    1ab2:	70 e0       	ldi	r23, 0x00	; 0
    1ab4:	86 2b       	or	r24, r22
    1ab6:	97 2b       	or	r25, r23
    1ab8:	a0 e0       	ldi	r26, 0x00	; 0
    1aba:	b0 e0       	ldi	r27, 0x00	; 0
    1abc:	28 2b       	or	r18, r24
    1abe:	39 2b       	or	r19, r25
    1ac0:	4a 2b       	or	r20, r26
    1ac2:	5b 2b       	or	r21, r27
    1ac4:	f1 01       	movw	r30, r2
    1ac6:	26 8f       	std	Z+30, r18	; 0x1e
    1ac8:	37 8f       	std	Z+31, r19	; 0x1f
    1aca:	40 a3       	std	Z+32, r20	; 0x20
    1acc:	51 a3       	std	Z+33, r21	; 0x21
	fs->fsize = LD_DWORD(dir+DIR_FileSize);	/* File size */
    1ace:	2c ad       	ldd	r18, Y+60	; 0x3c
    1ad0:	30 e0       	ldi	r19, 0x00	; 0
    1ad2:	40 e0       	ldi	r20, 0x00	; 0
    1ad4:	50 e0       	ldi	r21, 0x00	; 0
    1ad6:	52 2f       	mov	r21, r18
    1ad8:	44 27       	eor	r20, r20
    1ada:	33 27       	eor	r19, r19
    1adc:	22 27       	eor	r18, r18
    1ade:	8b ad       	ldd	r24, Y+59	; 0x3b
    1ae0:	90 e0       	ldi	r25, 0x00	; 0
    1ae2:	a0 e0       	ldi	r26, 0x00	; 0
    1ae4:	b0 e0       	ldi	r27, 0x00	; 0
    1ae6:	dc 01       	movw	r26, r24
    1ae8:	99 27       	eor	r25, r25
    1aea:	88 27       	eor	r24, r24
    1aec:	28 2b       	or	r18, r24
    1aee:	39 2b       	or	r19, r25
    1af0:	4a 2b       	or	r20, r26
    1af2:	5b 2b       	or	r21, r27
    1af4:	89 ad       	ldd	r24, Y+57	; 0x39
    1af6:	90 e0       	ldi	r25, 0x00	; 0
    1af8:	a0 e0       	ldi	r26, 0x00	; 0
    1afa:	b0 e0       	ldi	r27, 0x00	; 0
    1afc:	28 2b       	or	r18, r24
    1afe:	39 2b       	or	r19, r25
    1b00:	4a 2b       	or	r20, r26
    1b02:	5b 2b       	or	r21, r27
    1b04:	9a ad       	ldd	r25, Y+58	; 0x3a
    1b06:	80 e0       	ldi	r24, 0x00	; 0
    1b08:	a0 e0       	ldi	r26, 0x00	; 0
    1b0a:	b0 e0       	ldi	r27, 0x00	; 0
    1b0c:	28 2b       	or	r18, r24
    1b0e:	39 2b       	or	r19, r25
    1b10:	4a 2b       	or	r20, r26
    1b12:	5b 2b       	or	r21, r27
    1b14:	22 8f       	std	Z+26, r18	; 0x1a
    1b16:	33 8f       	std	Z+27, r19	; 0x1b
    1b18:	44 8f       	std	Z+28, r20	; 0x1c
    1b1a:	55 8f       	std	Z+29, r21	; 0x1d
	fs->fptr = 0;						/* File pointer */
    1b1c:	16 8a       	std	Z+22, r1	; 0x16
    1b1e:	17 8a       	std	Z+23, r1	; 0x17
    1b20:	10 8e       	std	Z+24, r1	; 0x18
    1b22:	11 8e       	std	Z+25, r1	; 0x19
	fs->flag = FA_OPENED;
    1b24:	81 e0       	ldi	r24, 0x01	; 1
    1b26:	81 83       	std	Z+1, r24	; 0x01
    1b28:	90 e0       	ldi	r25, 0x00	; 0
    1b2a:	01 c0       	rjmp	.+2      	; 0x1b2e <pf_open+0x3b2>

	return FR_OK;
    1b2c:	93 e0       	ldi	r25, 0x03	; 3
}
    1b2e:	89 2f       	mov	r24, r25
    1b30:	ef 96       	adiw	r28, 0x3f	; 63
    1b32:	0f b6       	in	r0, 0x3f	; 63
    1b34:	f8 94       	cli
    1b36:	de bf       	out	0x3e, r29	; 62
    1b38:	0f be       	out	0x3f, r0	; 63
    1b3a:	cd bf       	out	0x3d, r28	; 61
    1b3c:	cf 91       	pop	r28
    1b3e:	df 91       	pop	r29
    1b40:	1f 91       	pop	r17
    1b42:	0f 91       	pop	r16
    1b44:	ff 90       	pop	r15
    1b46:	ef 90       	pop	r14
    1b48:	df 90       	pop	r13
    1b4a:	cf 90       	pop	r12
    1b4c:	bf 90       	pop	r11
    1b4e:	af 90       	pop	r10
    1b50:	9f 90       	pop	r9
    1b52:	8f 90       	pop	r8
    1b54:	7f 90       	pop	r7
    1b56:	6f 90       	pop	r6
    1b58:	5f 90       	pop	r5
    1b5a:	4f 90       	pop	r4
    1b5c:	3f 90       	pop	r3
    1b5e:	2f 90       	pop	r2
    1b60:	08 95       	ret
	fs->org_clust = LD_CLUST(dir);			/* File start cluster */
	fs->fsize = LD_DWORD(dir+DIR_FileSize);	/* File size */
	fs->fptr = 0;						/* File pointer */
	fs->flag = FA_OPENED;

	return FR_OK;
    1b62:	93 e0       	ldi	r25, 0x03	; 3
    1b64:	69 cf       	rjmp	.-302    	; 0x1a38 <pf_open+0x2bc>
			if (res != FR_OK) {				/* Could not find the object */
				if (res == FR_NO_FILE && !*(dj->fn+11))
					res = FR_NO_PATH;
				break;
			}
			if (*(dj->fn+11)) break;		/* Last segment match. Function completed. */
    1b66:	f9 01       	movw	r30, r18
    1b68:	83 85       	ldd	r24, Z+11	; 0x0b
    1b6a:	88 23       	and	r24, r24
    1b6c:	09 f4       	brne	.+2      	; 0x1b70 <pf_open+0x3f4>
    1b6e:	6b cf       	rjmp	.-298    	; 0x1a46 <pf_open+0x2ca>
    1b70:	8b cf       	rjmp	.-234    	; 0x1a88 <pf_open+0x30c>
    1b72:	94 e0       	ldi	r25, 0x04	; 4
    1b74:	dc cf       	rjmp	.-72     	; 0x1b2e <pf_open+0x3b2>
    1b76:	91 e0       	ldi	r25, 0x01	; 1
    1b78:	da cf       	rjmp	.-76     	; 0x1b2e <pf_open+0x3b2>

00001b7a <check_fs>:
static
BYTE check_fs (	/* 0:The FAT boot record, 1:Valid boot record but not an FAT, 2:Not a boot record, 3:Error */
	BYTE *buf,	/* Working buffer */
	DWORD sect	/* Sector# (lba) to check if it is an FAT boot record or not */
)
{
    1b7a:	cf 92       	push	r12
    1b7c:	df 92       	push	r13
    1b7e:	ef 92       	push	r14
    1b80:	ff 92       	push	r15
    1b82:	0f 93       	push	r16
    1b84:	1f 93       	push	r17
    1b86:	cf 93       	push	r28
    1b88:	df 93       	push	r29
    1b8a:	ec 01       	movw	r28, r24
    1b8c:	6a 01       	movw	r12, r20
    1b8e:	7b 01       	movw	r14, r22
	if (disk_readp(buf, sect, 510, 2))		/* Read the boot sector */
    1b90:	2e ef       	ldi	r18, 0xFE	; 254
    1b92:	31 e0       	ldi	r19, 0x01	; 1
    1b94:	02 e0       	ldi	r16, 0x02	; 2
    1b96:	10 e0       	ldi	r17, 0x00	; 0
    1b98:	0e 94 6f 05 	call	0xade	; 0xade <disk_readp>
    1b9c:	88 23       	and	r24, r24
    1b9e:	11 f0       	breq	.+4      	; 0x1ba4 <check_fs+0x2a>
    1ba0:	43 e0       	ldi	r20, 0x03	; 3
    1ba2:	3b c0       	rjmp	.+118    	; 0x1c1a <check_fs+0xa0>
		return 3;
	if (LD_WORD(buf) != 0xAA55)				/* Check record signature */
    1ba4:	99 81       	ldd	r25, Y+1	; 0x01
    1ba6:	80 e0       	ldi	r24, 0x00	; 0
    1ba8:	28 81       	ld	r18, Y
    1baa:	30 e0       	ldi	r19, 0x00	; 0
    1bac:	82 2b       	or	r24, r18
    1bae:	93 2b       	or	r25, r19
    1bb0:	85 55       	subi	r24, 0x55	; 85
    1bb2:	9a 4a       	sbci	r25, 0xAA	; 170
    1bb4:	11 f0       	breq	.+4      	; 0x1bba <check_fs+0x40>
    1bb6:	42 e0       	ldi	r20, 0x02	; 2
    1bb8:	30 c0       	rjmp	.+96     	; 0x1c1a <check_fs+0xa0>
		return 2;

	if (!disk_readp(buf, sect, BS_FilSysType, 2) && LD_WORD(buf) == 0x4146)	/* Check FAT12/16 */
    1bba:	ce 01       	movw	r24, r28
    1bbc:	b7 01       	movw	r22, r14
    1bbe:	a6 01       	movw	r20, r12
    1bc0:	26 e3       	ldi	r18, 0x36	; 54
    1bc2:	30 e0       	ldi	r19, 0x00	; 0
    1bc4:	02 e0       	ldi	r16, 0x02	; 2
    1bc6:	10 e0       	ldi	r17, 0x00	; 0
    1bc8:	0e 94 6f 05 	call	0xade	; 0xade <disk_readp>
    1bcc:	88 23       	and	r24, r24
    1bce:	59 f4       	brne	.+22     	; 0x1be6 <check_fs+0x6c>
    1bd0:	99 81       	ldd	r25, Y+1	; 0x01
    1bd2:	80 e0       	ldi	r24, 0x00	; 0
    1bd4:	28 81       	ld	r18, Y
    1bd6:	30 e0       	ldi	r19, 0x00	; 0
    1bd8:	82 2b       	or	r24, r18
    1bda:	93 2b       	or	r25, r19
    1bdc:	86 54       	subi	r24, 0x46	; 70
    1bde:	91 44       	sbci	r25, 0x41	; 65
    1be0:	11 f4       	brne	.+4      	; 0x1be6 <check_fs+0x6c>
    1be2:	40 e0       	ldi	r20, 0x00	; 0
    1be4:	1a c0       	rjmp	.+52     	; 0x1c1a <check_fs+0xa0>
		return 0;
	if (_FS_FAT32 && !disk_readp(buf, sect, BS_FilSysType32, 2) && LD_WORD(buf) == 0x4146)	/* Check FAT32 */
    1be6:	ce 01       	movw	r24, r28
    1be8:	b7 01       	movw	r22, r14
    1bea:	a6 01       	movw	r20, r12
    1bec:	22 e5       	ldi	r18, 0x52	; 82
    1bee:	30 e0       	ldi	r19, 0x00	; 0
    1bf0:	02 e0       	ldi	r16, 0x02	; 2
    1bf2:	10 e0       	ldi	r17, 0x00	; 0
    1bf4:	0e 94 6f 05 	call	0xade	; 0xade <disk_readp>
    1bf8:	88 23       	and	r24, r24
    1bfa:	11 f0       	breq	.+4      	; 0x1c00 <check_fs+0x86>
    1bfc:	41 e0       	ldi	r20, 0x01	; 1
    1bfe:	0d c0       	rjmp	.+26     	; 0x1c1a <check_fs+0xa0>
    1c00:	40 e0       	ldi	r20, 0x00	; 0
    1c02:	99 81       	ldd	r25, Y+1	; 0x01
    1c04:	80 e0       	ldi	r24, 0x00	; 0
    1c06:	28 81       	ld	r18, Y
    1c08:	30 e0       	ldi	r19, 0x00	; 0
    1c0a:	82 2b       	or	r24, r18
    1c0c:	93 2b       	or	r25, r19
    1c0e:	86 54       	subi	r24, 0x46	; 70
    1c10:	91 44       	sbci	r25, 0x41	; 65
    1c12:	09 f4       	brne	.+2      	; 0x1c16 <check_fs+0x9c>
    1c14:	41 e0       	ldi	r20, 0x01	; 1
    1c16:	81 e0       	ldi	r24, 0x01	; 1
    1c18:	48 27       	eor	r20, r24
		return 0;
	return 1;
}
    1c1a:	84 2f       	mov	r24, r20
    1c1c:	df 91       	pop	r29
    1c1e:	cf 91       	pop	r28
    1c20:	1f 91       	pop	r17
    1c22:	0f 91       	pop	r16
    1c24:	ff 90       	pop	r15
    1c26:	ef 90       	pop	r14
    1c28:	df 90       	pop	r13
    1c2a:	cf 90       	pop	r12
    1c2c:	08 95       	ret

00001c2e <pf_write>:
FRESULT pf_write (
	const void* buff,	/* Pointer to the data to be written */
	WORD btw,			/* Number of bytes to write (0:Finalize the current write operation) */
	WORD* bw			/* Pointer to number of bytes written */
)
{
    1c2e:	4f 92       	push	r4
    1c30:	5f 92       	push	r5
    1c32:	6f 92       	push	r6
    1c34:	7f 92       	push	r7
    1c36:	8f 92       	push	r8
    1c38:	9f 92       	push	r9
    1c3a:	af 92       	push	r10
    1c3c:	bf 92       	push	r11
    1c3e:	cf 92       	push	r12
    1c40:	df 92       	push	r13
    1c42:	ef 92       	push	r14
    1c44:	ff 92       	push	r15
    1c46:	0f 93       	push	r16
    1c48:	1f 93       	push	r17
    1c4a:	cf 93       	push	r28
    1c4c:	df 93       	push	r29
    1c4e:	fc 01       	movw	r30, r24
    1c50:	5b 01       	movw	r10, r22
    1c52:	3a 01       	movw	r6, r20
	CLUST clst;
	DWORD sect, remain;
	const BYTE *p = buff;
	BYTE cs;
	WORD wcnt;
	FATFS *fs = FatFs;
    1c54:	c0 91 00 02 	lds	r28, 0x0200
    1c58:	d0 91 01 02 	lds	r29, 0x0201


	*bw = 0;
    1c5c:	da 01       	movw	r26, r20
    1c5e:	1d 92       	st	X+, r1
    1c60:	1c 92       	st	X, r1
	if (!fs) return FR_NOT_ENABLED;		/* Check file system */
    1c62:	20 97       	sbiw	r28, 0x00	; 0
    1c64:	11 f4       	brne	.+4      	; 0x1c6a <pf_write+0x3c>
    1c66:	86 e0       	ldi	r24, 0x06	; 6
    1c68:	fd c0       	rjmp	.+506    	; 0x1e64 <pf_write+0x236>
	if (!(fs->flag & FA_OPENED))		/* Check if opened */
    1c6a:	89 81       	ldd	r24, Y+1	; 0x01
    1c6c:	90 e0       	ldi	r25, 0x00	; 0
    1c6e:	80 fd       	sbrc	r24, 0
    1c70:	02 c0       	rjmp	.+4      	; 0x1c76 <pf_write+0x48>
    1c72:	85 e0       	ldi	r24, 0x05	; 5
    1c74:	f7 c0       	rjmp	.+494    	; 0x1e64 <pf_write+0x236>
    1c76:	80 74       	andi	r24, 0x40	; 64
    1c78:	90 70       	andi	r25, 0x00	; 0
		return FR_NOT_OPENED;

	if (!btw) {		/* Finalize request */
    1c7a:	61 15       	cp	r22, r1
    1c7c:	71 05       	cpc	r23, r1
    1c7e:	89 f4       	brne	.+34     	; 0x1ca2 <pf_write+0x74>
		if ((fs->flag & FA__WIP) && disk_writep(0, 0)) goto fw_abort;
    1c80:	89 2b       	or	r24, r25
    1c82:	59 f0       	breq	.+22     	; 0x1c9a <pf_write+0x6c>
    1c84:	80 e0       	ldi	r24, 0x00	; 0
    1c86:	90 e0       	ldi	r25, 0x00	; 0
    1c88:	40 e0       	ldi	r20, 0x00	; 0
    1c8a:	50 e0       	ldi	r21, 0x00	; 0
    1c8c:	60 e0       	ldi	r22, 0x00	; 0
    1c8e:	70 e0       	ldi	r23, 0x00	; 0
    1c90:	0e 94 d1 05 	call	0xba2	; 0xba2 <disk_writep>
    1c94:	88 23       	and	r24, r24
    1c96:	09 f0       	breq	.+2      	; 0x1c9a <pf_write+0x6c>
    1c98:	e3 c0       	rjmp	.+454    	; 0x1e60 <pf_write+0x232>
		fs->flag &= ~FA__WIP;
    1c9a:	89 81       	ldd	r24, Y+1	; 0x01
    1c9c:	8f 7b       	andi	r24, 0xBF	; 191
    1c9e:	89 83       	std	Y+1, r24	; 0x01
    1ca0:	dd c0       	rjmp	.+442    	; 0x1e5c <pf_write+0x22e>
		return FR_OK;
	} else {		/* Write data request */
		if (!(fs->flag & FA__WIP))		/* Round-down fptr to the sector boundary */
    1ca2:	89 2b       	or	r24, r25
    1ca4:	51 f4       	brne	.+20     	; 0x1cba <pf_write+0x8c>
			fs->fptr &= 0xFFFFFE00;
    1ca6:	8e 89       	ldd	r24, Y+22	; 0x16
    1ca8:	9f 89       	ldd	r25, Y+23	; 0x17
    1caa:	a8 8d       	ldd	r26, Y+24	; 0x18
    1cac:	b9 8d       	ldd	r27, Y+25	; 0x19
    1cae:	80 70       	andi	r24, 0x00	; 0
    1cb0:	9e 7f       	andi	r25, 0xFE	; 254
    1cb2:	8e 8b       	std	Y+22, r24	; 0x16
    1cb4:	9f 8b       	std	Y+23, r25	; 0x17
    1cb6:	a8 8f       	std	Y+24, r26	; 0x18
    1cb8:	b9 8f       	std	Y+25, r27	; 0x19
	}
	remain = fs->fsize - fs->fptr;
    1cba:	2a 8d       	ldd	r18, Y+26	; 0x1a
    1cbc:	3b 8d       	ldd	r19, Y+27	; 0x1b
    1cbe:	4c 8d       	ldd	r20, Y+28	; 0x1c
    1cc0:	5d 8d       	ldd	r21, Y+29	; 0x1d
    1cc2:	8e 89       	ldd	r24, Y+22	; 0x16
    1cc4:	9f 89       	ldd	r25, Y+23	; 0x17
    1cc6:	a8 8d       	ldd	r26, Y+24	; 0x18
    1cc8:	b9 8d       	ldd	r27, Y+25	; 0x19
    1cca:	28 1b       	sub	r18, r24
    1ccc:	39 0b       	sbc	r19, r25
    1cce:	4a 0b       	sbc	r20, r26
    1cd0:	5b 0b       	sbc	r21, r27
	if (btw > remain) btw = (WORD)remain;			/* Truncate btw by remaining bytes */
    1cd2:	c5 01       	movw	r24, r10
    1cd4:	a0 e0       	ldi	r26, 0x00	; 0
    1cd6:	b0 e0       	ldi	r27, 0x00	; 0
    1cd8:	28 17       	cp	r18, r24
    1cda:	39 07       	cpc	r19, r25
    1cdc:	4a 07       	cpc	r20, r26
    1cde:	5b 07       	cpc	r21, r27
    1ce0:	08 f4       	brcc	.+2      	; 0x1ce4 <pf_write+0xb6>
    1ce2:	59 01       	movw	r10, r18
	WORD* bw			/* Pointer to number of bytes written */
)
{
	CLUST clst;
	DWORD sect, remain;
	const BYTE *p = buff;
    1ce4:	4f 01       	movw	r8, r30
			if (!sect) goto fw_abort;
			fs->dsect = sect + cs;
			if (disk_writep(0, fs->dsect)) goto fw_abort;	/* Initiate a sector write operation */
			fs->flag |= FA__WIP;
		}
		wcnt = 512 - ((WORD)fs->fptr % 512);		/* Number of bytes to write to the sector */
    1ce6:	41 2c       	mov	r4, r1
    1ce8:	02 e0       	ldi	r16, 0x02	; 2
    1cea:	50 2e       	mov	r5, r16
    1cec:	b3 c0       	rjmp	.+358    	; 0x1e54 <pf_write+0x226>
	}
	remain = fs->fsize - fs->fptr;
	if (btw > remain) btw = (WORD)remain;			/* Truncate btw by remaining bytes */

	while (btw)	{									/* Repeat until all data transferred */
		if (((WORD)fs->fptr % 512) == 0) {			/* On the sector boundary? */
    1cee:	2e 89       	ldd	r18, Y+22	; 0x16
    1cf0:	3f 89       	ldd	r19, Y+23	; 0x17
    1cf2:	48 8d       	ldd	r20, Y+24	; 0x18
    1cf4:	59 8d       	ldd	r21, Y+25	; 0x19
    1cf6:	c9 01       	movw	r24, r18
    1cf8:	91 70       	andi	r25, 0x01	; 1
    1cfa:	89 2b       	or	r24, r25
    1cfc:	09 f0       	breq	.+2      	; 0x1d00 <pf_write+0xd2>
    1cfe:	6c c0       	rjmp	.+216    	; 0x1dd8 <pf_write+0x1aa>
			cs = (BYTE)(fs->fptr / 512 & (fs->csize - 1));	/* Sector offset in the cluster */
    1d00:	da 01       	movw	r26, r20
    1d02:	c9 01       	movw	r24, r18
    1d04:	19 e0       	ldi	r17, 0x09	; 9
    1d06:	b6 95       	lsr	r27
    1d08:	a7 95       	ror	r26
    1d0a:	97 95       	ror	r25
    1d0c:	87 95       	ror	r24
    1d0e:	1a 95       	dec	r17
    1d10:	d1 f7       	brne	.-12     	; 0x1d06 <pf_write+0xd8>
    1d12:	fa 80       	ldd	r15, Y+2	; 0x02
    1d14:	fa 94       	dec	r15
    1d16:	f8 22       	and	r15, r24
			if (!cs) {								/* On the cluster boundary? */
    1d18:	d1 f4       	brne	.+52     	; 0x1d4e <pf_write+0x120>
				clst = (fs->fptr == 0) ?			/* On the top of the file? */
    1d1a:	21 15       	cp	r18, r1
    1d1c:	31 05       	cpc	r19, r1
    1d1e:	41 05       	cpc	r20, r1
    1d20:	51 05       	cpc	r21, r1
    1d22:	29 f4       	brne	.+10     	; 0x1d2e <pf_write+0x100>
    1d24:	6e 8d       	ldd	r22, Y+30	; 0x1e
    1d26:	7f 8d       	ldd	r23, Y+31	; 0x1f
    1d28:	88 a1       	ldd	r24, Y+32	; 0x20
    1d2a:	99 a1       	ldd	r25, Y+33	; 0x21
    1d2c:	06 c0       	rjmp	.+12     	; 0x1d3a <pf_write+0x10c>
    1d2e:	6a a1       	ldd	r22, Y+34	; 0x22
    1d30:	7b a1       	ldd	r23, Y+35	; 0x23
    1d32:	8c a1       	ldd	r24, Y+36	; 0x24
    1d34:	9d a1       	ldd	r25, Y+37	; 0x25
    1d36:	0e 94 79 09 	call	0x12f2	; 0x12f2 <get_fat>
					fs->org_clust : get_fat(fs->curr_clust);
				if (clst <= 1) goto fw_abort;
    1d3a:	62 30       	cpi	r22, 0x02	; 2
    1d3c:	71 05       	cpc	r23, r1
    1d3e:	81 05       	cpc	r24, r1
    1d40:	91 05       	cpc	r25, r1
    1d42:	08 f4       	brcc	.+2      	; 0x1d46 <pf_write+0x118>
    1d44:	8d c0       	rjmp	.+282    	; 0x1e60 <pf_write+0x232>
				fs->curr_clust = clst;				/* Update current cluster */
    1d46:	6a a3       	std	Y+34, r22	; 0x22
    1d48:	7b a3       	std	Y+35, r23	; 0x23
    1d4a:	8c a3       	std	Y+36, r24	; 0x24
    1d4c:	9d a3       	std	Y+37, r25	; 0x25
static
DWORD clust2sect (	/* !=0: Sector number, 0: Failed - invalid cluster# */
	CLUST clst		/* Cluster# to be converted */
)
{
	FATFS *fs = FatFs;
    1d4e:	00 91 00 02 	lds	r16, 0x0200
    1d52:	10 91 01 02 	lds	r17, 0x0201


	clst -= 2;
    1d56:	2a a1       	ldd	r18, Y+34	; 0x22
    1d58:	3b a1       	ldd	r19, Y+35	; 0x23
    1d5a:	4c a1       	ldd	r20, Y+36	; 0x24
    1d5c:	5d a1       	ldd	r21, Y+37	; 0x25
    1d5e:	22 50       	subi	r18, 0x02	; 2
    1d60:	30 40       	sbci	r19, 0x00	; 0
    1d62:	40 40       	sbci	r20, 0x00	; 0
    1d64:	50 40       	sbci	r21, 0x00	; 0
	if (clst >= (fs->n_fatent - 2)) return 0;		/* Invalid cluster# */
    1d66:	f8 01       	movw	r30, r16
    1d68:	86 81       	ldd	r24, Z+6	; 0x06
    1d6a:	97 81       	ldd	r25, Z+7	; 0x07
    1d6c:	a0 85       	ldd	r26, Z+8	; 0x08
    1d6e:	b1 85       	ldd	r27, Z+9	; 0x09
    1d70:	02 97       	sbiw	r24, 0x02	; 2
    1d72:	a1 09       	sbc	r26, r1
    1d74:	b1 09       	sbc	r27, r1
    1d76:	28 17       	cp	r18, r24
    1d78:	39 07       	cpc	r19, r25
    1d7a:	4a 07       	cpc	r20, r26
    1d7c:	5b 07       	cpc	r21, r27
    1d7e:	08 f0       	brcs	.+2      	; 0x1d82 <pf_write+0x154>
    1d80:	6f c0       	rjmp	.+222    	; 0x1e60 <pf_write+0x232>
	return (DWORD)clst * fs->csize + fs->database;
    1d82:	62 81       	ldd	r22, Z+2	; 0x02
    1d84:	70 e0       	ldi	r23, 0x00	; 0
    1d86:	80 e0       	ldi	r24, 0x00	; 0
    1d88:	90 e0       	ldi	r25, 0x00	; 0
    1d8a:	0e 94 29 18 	call	0x3052	; 0x3052 <__mulsi3>
    1d8e:	9b 01       	movw	r18, r22
    1d90:	ac 01       	movw	r20, r24
    1d92:	f8 01       	movw	r30, r16
    1d94:	82 89       	ldd	r24, Z+18	; 0x12
    1d96:	93 89       	ldd	r25, Z+19	; 0x13
    1d98:	a4 89       	ldd	r26, Z+20	; 0x14
    1d9a:	b5 89       	ldd	r27, Z+21	; 0x15
    1d9c:	28 0f       	add	r18, r24
    1d9e:	39 1f       	adc	r19, r25
    1da0:	4a 1f       	adc	r20, r26
    1da2:	5b 1f       	adc	r21, r27
					fs->org_clust : get_fat(fs->curr_clust);
				if (clst <= 1) goto fw_abort;
				fs->curr_clust = clst;				/* Update current cluster */
			}
			sect = clust2sect(fs->curr_clust);		/* Get current sector */
			if (!sect) goto fw_abort;
    1da4:	21 15       	cp	r18, r1
    1da6:	31 05       	cpc	r19, r1
    1da8:	41 05       	cpc	r20, r1
    1daa:	51 05       	cpc	r21, r1
    1dac:	09 f4       	brne	.+2      	; 0x1db0 <pf_write+0x182>
    1dae:	58 c0       	rjmp	.+176    	; 0x1e60 <pf_write+0x232>
			fs->dsect = sect + cs;
    1db0:	ba 01       	movw	r22, r20
    1db2:	a9 01       	movw	r20, r18
    1db4:	4f 0d       	add	r20, r15
    1db6:	51 1d       	adc	r21, r1
    1db8:	61 1d       	adc	r22, r1
    1dba:	71 1d       	adc	r23, r1
    1dbc:	4e a3       	std	Y+38, r20	; 0x26
    1dbe:	5f a3       	std	Y+39, r21	; 0x27
    1dc0:	68 a7       	std	Y+40, r22	; 0x28
    1dc2:	79 a7       	std	Y+41, r23	; 0x29
			if (disk_writep(0, fs->dsect)) goto fw_abort;	/* Initiate a sector write operation */
    1dc4:	80 e0       	ldi	r24, 0x00	; 0
    1dc6:	90 e0       	ldi	r25, 0x00	; 0
    1dc8:	0e 94 d1 05 	call	0xba2	; 0xba2 <disk_writep>
    1dcc:	88 23       	and	r24, r24
    1dce:	09 f0       	breq	.+2      	; 0x1dd2 <pf_write+0x1a4>
    1dd0:	47 c0       	rjmp	.+142    	; 0x1e60 <pf_write+0x232>
			fs->flag |= FA__WIP;
    1dd2:	89 81       	ldd	r24, Y+1	; 0x01
    1dd4:	80 64       	ori	r24, 0x40	; 64
    1dd6:	89 83       	std	Y+1, r24	; 0x01
		}
		wcnt = 512 - ((WORD)fs->fptr % 512);		/* Number of bytes to write to the sector */
    1dd8:	8e 89       	ldd	r24, Y+22	; 0x16
    1dda:	9f 89       	ldd	r25, Y+23	; 0x17
    1ddc:	91 70       	andi	r25, 0x01	; 1
    1dde:	92 01       	movw	r18, r4
    1de0:	28 1b       	sub	r18, r24
    1de2:	39 0b       	sbc	r19, r25
    1de4:	65 01       	movw	r12, r10
    1de6:	2a 15       	cp	r18, r10
    1de8:	3b 05       	cpc	r19, r11
    1dea:	08 f4       	brcc	.+2      	; 0x1dee <pf_write+0x1c0>
    1dec:	69 01       	movw	r12, r18
		if (wcnt > btw) wcnt = btw;
		if (disk_writep(p, wcnt)) goto fw_abort;	/* Send data to the sector */
    1dee:	76 01       	movw	r14, r12
    1df0:	00 e0       	ldi	r16, 0x00	; 0
    1df2:	10 e0       	ldi	r17, 0x00	; 0
    1df4:	c4 01       	movw	r24, r8
    1df6:	b8 01       	movw	r22, r16
    1df8:	a7 01       	movw	r20, r14
    1dfa:	0e 94 d1 05 	call	0xba2	; 0xba2 <disk_writep>
    1dfe:	88 23       	and	r24, r24
    1e00:	79 f5       	brne	.+94     	; 0x1e60 <pf_write+0x232>
		fs->fptr += wcnt; p += wcnt;				/* Update pointers and counters */
    1e02:	8e 89       	ldd	r24, Y+22	; 0x16
    1e04:	9f 89       	ldd	r25, Y+23	; 0x17
    1e06:	a8 8d       	ldd	r26, Y+24	; 0x18
    1e08:	b9 8d       	ldd	r27, Y+25	; 0x19
    1e0a:	8e 0d       	add	r24, r14
    1e0c:	9f 1d       	adc	r25, r15
    1e0e:	a0 1f       	adc	r26, r16
    1e10:	b1 1f       	adc	r27, r17
    1e12:	9c 01       	movw	r18, r24
    1e14:	8e 8b       	std	Y+22, r24	; 0x16
    1e16:	9f 8b       	std	Y+23, r25	; 0x17
    1e18:	a8 8f       	std	Y+24, r26	; 0x18
    1e1a:	b9 8f       	std	Y+25, r27	; 0x19
		btw -= wcnt; *bw += wcnt;
    1e1c:	d3 01       	movw	r26, r6
    1e1e:	8d 91       	ld	r24, X+
    1e20:	9c 91       	ld	r25, X
    1e22:	11 97       	sbiw	r26, 0x01	; 1
    1e24:	8c 0d       	add	r24, r12
    1e26:	9d 1d       	adc	r25, r13
    1e28:	8d 93       	st	X+, r24
    1e2a:	9c 93       	st	X, r25
		if (((WORD)fs->fptr % 512) == 0) {
    1e2c:	31 70       	andi	r19, 0x01	; 1
    1e2e:	23 2b       	or	r18, r19
    1e30:	69 f4       	brne	.+26     	; 0x1e4c <pf_write+0x21e>
			if (disk_writep(0, 0)) goto fw_abort;	/* Finalize the currtent secter write operation */
    1e32:	80 e0       	ldi	r24, 0x00	; 0
    1e34:	90 e0       	ldi	r25, 0x00	; 0
    1e36:	40 e0       	ldi	r20, 0x00	; 0
    1e38:	50 e0       	ldi	r21, 0x00	; 0
    1e3a:	60 e0       	ldi	r22, 0x00	; 0
    1e3c:	70 e0       	ldi	r23, 0x00	; 0
    1e3e:	0e 94 d1 05 	call	0xba2	; 0xba2 <disk_writep>
    1e42:	88 23       	and	r24, r24
    1e44:	69 f4       	brne	.+26     	; 0x1e60 <pf_write+0x232>
			fs->flag &= ~FA__WIP;
    1e46:	89 81       	ldd	r24, Y+1	; 0x01
    1e48:	8f 7b       	andi	r24, 0xBF	; 191
    1e4a:	89 83       	std	Y+1, r24	; 0x01
			fs->flag |= FA__WIP;
		}
		wcnt = 512 - ((WORD)fs->fptr % 512);		/* Number of bytes to write to the sector */
		if (wcnt > btw) wcnt = btw;
		if (disk_writep(p, wcnt)) goto fw_abort;	/* Send data to the sector */
		fs->fptr += wcnt; p += wcnt;				/* Update pointers and counters */
    1e4c:	8c 0c       	add	r8, r12
    1e4e:	9d 1c       	adc	r9, r13
		btw -= wcnt; *bw += wcnt;
    1e50:	ac 18       	sub	r10, r12
    1e52:	bd 08       	sbc	r11, r13
			fs->fptr &= 0xFFFFFE00;
	}
	remain = fs->fsize - fs->fptr;
	if (btw > remain) btw = (WORD)remain;			/* Truncate btw by remaining bytes */

	while (btw)	{									/* Repeat until all data transferred */
    1e54:	a1 14       	cp	r10, r1
    1e56:	b1 04       	cpc	r11, r1
    1e58:	09 f0       	breq	.+2      	; 0x1e5c <pf_write+0x22e>
    1e5a:	49 cf       	rjmp	.-366    	; 0x1cee <pf_write+0xc0>
    1e5c:	80 e0       	ldi	r24, 0x00	; 0
    1e5e:	02 c0       	rjmp	.+4      	; 0x1e64 <pf_write+0x236>
	}

	return FR_OK;

fw_abort:
	fs->flag = 0;
    1e60:	19 82       	std	Y+1, r1	; 0x01
    1e62:	81 e0       	ldi	r24, 0x01	; 1
	return FR_DISK_ERR;
}
    1e64:	df 91       	pop	r29
    1e66:	cf 91       	pop	r28
    1e68:	1f 91       	pop	r17
    1e6a:	0f 91       	pop	r16
    1e6c:	ff 90       	pop	r15
    1e6e:	ef 90       	pop	r14
    1e70:	df 90       	pop	r13
    1e72:	cf 90       	pop	r12
    1e74:	bf 90       	pop	r11
    1e76:	af 90       	pop	r10
    1e78:	9f 90       	pop	r9
    1e7a:	8f 90       	pop	r8
    1e7c:	7f 90       	pop	r7
    1e7e:	6f 90       	pop	r6
    1e80:	5f 90       	pop	r5
    1e82:	4f 90       	pop	r4
    1e84:	08 95       	ret

00001e86 <pf_mount>:
/*-----------------------------------------------------------------------*/

FRESULT pf_mount (
	FATFS *fs		/* Pointer to new file system object (NULL: Unmount) */
)
{
    1e86:	4f 92       	push	r4
    1e88:	5f 92       	push	r5
    1e8a:	6f 92       	push	r6
    1e8c:	7f 92       	push	r7
    1e8e:	8f 92       	push	r8
    1e90:	9f 92       	push	r9
    1e92:	af 92       	push	r10
    1e94:	bf 92       	push	r11
    1e96:	cf 92       	push	r12
    1e98:	df 92       	push	r13
    1e9a:	ef 92       	push	r14
    1e9c:	ff 92       	push	r15
    1e9e:	0f 93       	push	r16
    1ea0:	1f 93       	push	r17
    1ea2:	df 93       	push	r29
    1ea4:	cf 93       	push	r28
    1ea6:	cd b7       	in	r28, 0x3d	; 61
    1ea8:	de b7       	in	r29, 0x3e	; 62
    1eaa:	a4 97       	sbiw	r28, 0x24	; 36
    1eac:	0f b6       	in	r0, 0x3f	; 63
    1eae:	f8 94       	cli
    1eb0:	de bf       	out	0x3e, r29	; 62
    1eb2:	0f be       	out	0x3f, r0	; 63
    1eb4:	cd bf       	out	0x3d, r28	; 61
    1eb6:	4c 01       	movw	r8, r24
	BYTE fmt, buf[36];
	DWORD bsect, fsize, tsect, mclst;


	FatFs = 0;
    1eb8:	10 92 01 02 	sts	0x0201, r1
    1ebc:	10 92 00 02 	sts	0x0200, r1
	if (!fs) return FR_OK;				/* Unregister fs object */
    1ec0:	00 97       	sbiw	r24, 0x00	; 0
    1ec2:	09 f4       	brne	.+2      	; 0x1ec6 <pf_mount+0x40>
    1ec4:	83 c1       	rjmp	.+774    	; 0x21cc <pf_mount+0x346>

	if (disk_initialize() & STA_NOINIT)	/* Check if the drive is ready or not */
    1ec6:	0e 94 4e 06 	call	0xc9c	; 0xc9c <disk_initialize>
    1eca:	80 ff       	sbrs	r24, 0
    1ecc:	02 c0       	rjmp	.+4      	; 0x1ed2 <pf_mount+0x4c>
    1ece:	82 e0       	ldi	r24, 0x02	; 2
    1ed0:	82 c1       	rjmp	.+772    	; 0x21d6 <pf_mount+0x350>
		return FR_NOT_READY;

	/* Search FAT partition on the drive */
	bsect = 0;
	fmt = check_fs(buf, bsect);			/* Check sector 0 as an SFD format */
    1ed2:	7e 01       	movw	r14, r28
    1ed4:	08 94       	sec
    1ed6:	e1 1c       	adc	r14, r1
    1ed8:	f1 1c       	adc	r15, r1
    1eda:	c7 01       	movw	r24, r14
    1edc:	40 e0       	ldi	r20, 0x00	; 0
    1ede:	50 e0       	ldi	r21, 0x00	; 0
    1ee0:	60 e0       	ldi	r22, 0x00	; 0
    1ee2:	70 e0       	ldi	r23, 0x00	; 0
    1ee4:	0e 94 bd 0d 	call	0x1b7a	; 0x1b7a <check_fs>
	if (fmt == 1) {						/* Not an FAT boot record, it may be FDISK format */
    1ee8:	81 30       	cpi	r24, 0x01	; 1
    1eea:	21 f0       	breq	.+8      	; 0x1ef4 <pf_mount+0x6e>
    1eec:	aa 24       	eor	r10, r10
    1eee:	bb 24       	eor	r11, r11
    1ef0:	65 01       	movw	r12, r10
    1ef2:	3a c0       	rjmp	.+116    	; 0x1f68 <pf_mount+0xe2>
		/* Check a partition listed in top of the partition table */
		if (disk_readp(buf, bsect, MBR_Table, 16)) {	/* 1st partition entry */
    1ef4:	c7 01       	movw	r24, r14
    1ef6:	40 e0       	ldi	r20, 0x00	; 0
    1ef8:	50 e0       	ldi	r21, 0x00	; 0
    1efa:	60 e0       	ldi	r22, 0x00	; 0
    1efc:	70 e0       	ldi	r23, 0x00	; 0
    1efe:	2e eb       	ldi	r18, 0xBE	; 190
    1f00:	31 e0       	ldi	r19, 0x01	; 1
    1f02:	00 e1       	ldi	r16, 0x10	; 16
    1f04:	10 e0       	ldi	r17, 0x00	; 0
    1f06:	0e 94 6f 05 	call	0xade	; 0xade <disk_readp>
    1f0a:	88 23       	and	r24, r24
    1f0c:	09 f0       	breq	.+2      	; 0x1f10 <pf_mount+0x8a>
    1f0e:	60 c1       	rjmp	.+704    	; 0x21d0 <pf_mount+0x34a>
			fmt = 3;
		} else {
			if (buf[4]) {					/* Is the partition existing? */
    1f10:	8d 81       	ldd	r24, Y+5	; 0x05
    1f12:	88 23       	and	r24, r24
    1f14:	09 f4       	brne	.+2      	; 0x1f18 <pf_mount+0x92>
    1f16:	5e c1       	rjmp	.+700    	; 0x21d4 <pf_mount+0x34e>
				bsect = LD_DWORD(&buf[8]);	/* Partition offset in LBA */
    1f18:	8c 85       	ldd	r24, Y+12	; 0x0c
    1f1a:	90 e0       	ldi	r25, 0x00	; 0
    1f1c:	a0 e0       	ldi	r26, 0x00	; 0
    1f1e:	b0 e0       	ldi	r27, 0x00	; 0
    1f20:	d8 2e       	mov	r13, r24
    1f22:	cc 24       	eor	r12, r12
    1f24:	bb 24       	eor	r11, r11
    1f26:	aa 24       	eor	r10, r10
    1f28:	8b 85       	ldd	r24, Y+11	; 0x0b
    1f2a:	90 e0       	ldi	r25, 0x00	; 0
    1f2c:	a0 e0       	ldi	r26, 0x00	; 0
    1f2e:	b0 e0       	ldi	r27, 0x00	; 0
    1f30:	dc 01       	movw	r26, r24
    1f32:	99 27       	eor	r25, r25
    1f34:	88 27       	eor	r24, r24
    1f36:	a8 2a       	or	r10, r24
    1f38:	b9 2a       	or	r11, r25
    1f3a:	ca 2a       	or	r12, r26
    1f3c:	db 2a       	or	r13, r27
    1f3e:	89 85       	ldd	r24, Y+9	; 0x09
    1f40:	90 e0       	ldi	r25, 0x00	; 0
    1f42:	a0 e0       	ldi	r26, 0x00	; 0
    1f44:	b0 e0       	ldi	r27, 0x00	; 0
    1f46:	a8 2a       	or	r10, r24
    1f48:	b9 2a       	or	r11, r25
    1f4a:	ca 2a       	or	r12, r26
    1f4c:	db 2a       	or	r13, r27
    1f4e:	9a 85       	ldd	r25, Y+10	; 0x0a
    1f50:	80 e0       	ldi	r24, 0x00	; 0
    1f52:	a0 e0       	ldi	r26, 0x00	; 0
    1f54:	b0 e0       	ldi	r27, 0x00	; 0
    1f56:	a8 2a       	or	r10, r24
    1f58:	b9 2a       	or	r11, r25
    1f5a:	ca 2a       	or	r12, r26
    1f5c:	db 2a       	or	r13, r27
				fmt = check_fs(buf, bsect);	/* Check the partition */
    1f5e:	c7 01       	movw	r24, r14
    1f60:	b6 01       	movw	r22, r12
    1f62:	a5 01       	movw	r20, r10
    1f64:	0e 94 bd 0d 	call	0x1b7a	; 0x1b7a <check_fs>
			}
		}
	}
	if (fmt == 3) return FR_DISK_ERR;
    1f68:	83 30       	cpi	r24, 0x03	; 3
    1f6a:	09 f4       	brne	.+2      	; 0x1f6e <pf_mount+0xe8>
    1f6c:	31 c1       	rjmp	.+610    	; 0x21d0 <pf_mount+0x34a>
	if (fmt) return FR_NO_FILESYSTEM;	/* No valid FAT patition is found */
    1f6e:	88 23       	and	r24, r24
    1f70:	09 f0       	breq	.+2      	; 0x1f74 <pf_mount+0xee>
    1f72:	30 c1       	rjmp	.+608    	; 0x21d4 <pf_mount+0x34e>

	/* Initialize the file system object */
	if (disk_readp(buf, bsect, 13, sizeof(buf))) return FR_DISK_ERR;
    1f74:	ce 01       	movw	r24, r28
    1f76:	01 96       	adiw	r24, 0x01	; 1
    1f78:	b6 01       	movw	r22, r12
    1f7a:	a5 01       	movw	r20, r10
    1f7c:	2d e0       	ldi	r18, 0x0D	; 13
    1f7e:	30 e0       	ldi	r19, 0x00	; 0
    1f80:	04 e2       	ldi	r16, 0x24	; 36
    1f82:	10 e0       	ldi	r17, 0x00	; 0
    1f84:	0e 94 6f 05 	call	0xade	; 0xade <disk_readp>
    1f88:	88 23       	and	r24, r24
    1f8a:	09 f0       	breq	.+2      	; 0x1f8e <pf_mount+0x108>
    1f8c:	21 c1       	rjmp	.+578    	; 0x21d0 <pf_mount+0x34a>

	fsize = LD_WORD(buf+BPB_FATSz16-13);				/* Number of sectors per FAT */
    1f8e:	9b 85       	ldd	r25, Y+11	; 0x0b
    1f90:	80 e0       	ldi	r24, 0x00	; 0
    1f92:	2a 85       	ldd	r18, Y+10	; 0x0a
    1f94:	30 e0       	ldi	r19, 0x00	; 0
    1f96:	82 2b       	or	r24, r18
    1f98:	93 2b       	or	r25, r19
    1f9a:	7c 01       	movw	r14, r24
    1f9c:	00 e0       	ldi	r16, 0x00	; 0
    1f9e:	10 e0       	ldi	r17, 0x00	; 0
	if (!fsize) fsize = LD_DWORD(buf+BPB_FATSz32-13);
    1fa0:	e1 14       	cp	r14, r1
    1fa2:	f1 04       	cpc	r15, r1
    1fa4:	01 05       	cpc	r16, r1
    1fa6:	11 05       	cpc	r17, r1
    1fa8:	19 f5       	brne	.+70     	; 0x1ff0 <pf_mount+0x16a>
    1faa:	8b 8d       	ldd	r24, Y+27	; 0x1b
    1fac:	90 e0       	ldi	r25, 0x00	; 0
    1fae:	a0 e0       	ldi	r26, 0x00	; 0
    1fb0:	b0 e0       	ldi	r27, 0x00	; 0
    1fb2:	18 2f       	mov	r17, r24
    1fb4:	00 27       	eor	r16, r16
    1fb6:	ff 24       	eor	r15, r15
    1fb8:	ee 24       	eor	r14, r14
    1fba:	8a 8d       	ldd	r24, Y+26	; 0x1a
    1fbc:	90 e0       	ldi	r25, 0x00	; 0
    1fbe:	a0 e0       	ldi	r26, 0x00	; 0
    1fc0:	b0 e0       	ldi	r27, 0x00	; 0
    1fc2:	dc 01       	movw	r26, r24
    1fc4:	99 27       	eor	r25, r25
    1fc6:	88 27       	eor	r24, r24
    1fc8:	e8 2a       	or	r14, r24
    1fca:	f9 2a       	or	r15, r25
    1fcc:	0a 2b       	or	r16, r26
    1fce:	1b 2b       	or	r17, r27
    1fd0:	88 8d       	ldd	r24, Y+24	; 0x18
    1fd2:	90 e0       	ldi	r25, 0x00	; 0
    1fd4:	a0 e0       	ldi	r26, 0x00	; 0
    1fd6:	b0 e0       	ldi	r27, 0x00	; 0
    1fd8:	e8 2a       	or	r14, r24
    1fda:	f9 2a       	or	r15, r25
    1fdc:	0a 2b       	or	r16, r26
    1fde:	1b 2b       	or	r17, r27
    1fe0:	99 8d       	ldd	r25, Y+25	; 0x19
    1fe2:	80 e0       	ldi	r24, 0x00	; 0
    1fe4:	a0 e0       	ldi	r26, 0x00	; 0
    1fe6:	b0 e0       	ldi	r27, 0x00	; 0
    1fe8:	e8 2a       	or	r14, r24
    1fea:	f9 2a       	or	r15, r25
    1fec:	0a 2b       	or	r16, r26
    1fee:	1b 2b       	or	r17, r27

	fsize *= buf[BPB_NumFATs-13];						/* Number of sectors in FAT area */
    1ff0:	2c 81       	ldd	r18, Y+4	; 0x04
    1ff2:	30 e0       	ldi	r19, 0x00	; 0
    1ff4:	40 e0       	ldi	r20, 0x00	; 0
    1ff6:	50 e0       	ldi	r21, 0x00	; 0
    1ff8:	c8 01       	movw	r24, r16
    1ffa:	b7 01       	movw	r22, r14
    1ffc:	0e 94 29 18 	call	0x3052	; 0x3052 <__mulsi3>
    2000:	2b 01       	movw	r4, r22
    2002:	3c 01       	movw	r6, r24
	fs->fatbase = bsect + LD_WORD(buf+BPB_RsvdSecCnt-13); /* FAT start sector (lba) */
    2004:	9b 81       	ldd	r25, Y+3	; 0x03
    2006:	80 e0       	ldi	r24, 0x00	; 0
    2008:	2a 81       	ldd	r18, Y+2	; 0x02
    200a:	30 e0       	ldi	r19, 0x00	; 0
    200c:	82 2b       	or	r24, r18
    200e:	93 2b       	or	r25, r19
    2010:	a0 e0       	ldi	r26, 0x00	; 0
    2012:	b0 e0       	ldi	r27, 0x00	; 0
    2014:	a8 0e       	add	r10, r24
    2016:	b9 1e       	adc	r11, r25
    2018:	ca 1e       	adc	r12, r26
    201a:	db 1e       	adc	r13, r27
    201c:	f4 01       	movw	r30, r8
    201e:	a2 86       	std	Z+10, r10	; 0x0a
    2020:	b3 86       	std	Z+11, r11	; 0x0b
    2022:	c4 86       	std	Z+12, r12	; 0x0c
    2024:	d5 86       	std	Z+13, r13	; 0x0d
	fs->csize = buf[BPB_SecPerClus-13];					/* Number of sectors per cluster */
    2026:	89 81       	ldd	r24, Y+1	; 0x01
    2028:	82 83       	std	Z+2, r24	; 0x02
	fs->n_rootdir = LD_WORD(buf+BPB_RootEntCnt-13);		/* Nmuber of root directory entries */
    202a:	9e 81       	ldd	r25, Y+6	; 0x06
    202c:	80 e0       	ldi	r24, 0x00	; 0
    202e:	2d 81       	ldd	r18, Y+5	; 0x05
    2030:	42 2f       	mov	r20, r18
    2032:	50 e0       	ldi	r21, 0x00	; 0
    2034:	48 2b       	or	r20, r24
    2036:	59 2b       	or	r21, r25
    2038:	55 83       	std	Z+5, r21	; 0x05
    203a:	44 83       	std	Z+4, r20	; 0x04
	tsect = LD_WORD(buf+BPB_TotSec16-13);				/* Number of sectors on the file system */
    203c:	98 85       	ldd	r25, Y+8	; 0x08
    203e:	80 e0       	ldi	r24, 0x00	; 0
    2040:	2f 81       	ldd	r18, Y+7	; 0x07
    2042:	30 e0       	ldi	r19, 0x00	; 0
    2044:	82 2b       	or	r24, r18
    2046:	93 2b       	or	r25, r19
    2048:	7c 01       	movw	r14, r24
    204a:	00 e0       	ldi	r16, 0x00	; 0
    204c:	10 e0       	ldi	r17, 0x00	; 0
	if (!tsect) tsect = LD_DWORD(buf+BPB_TotSec32-13);
    204e:	e1 14       	cp	r14, r1
    2050:	f1 04       	cpc	r15, r1
    2052:	01 05       	cpc	r16, r1
    2054:	11 05       	cpc	r17, r1
    2056:	19 f5       	brne	.+70     	; 0x209e <pf_mount+0x218>
    2058:	8f 89       	ldd	r24, Y+23	; 0x17
    205a:	90 e0       	ldi	r25, 0x00	; 0
    205c:	a0 e0       	ldi	r26, 0x00	; 0
    205e:	b0 e0       	ldi	r27, 0x00	; 0
    2060:	18 2f       	mov	r17, r24
    2062:	00 27       	eor	r16, r16
    2064:	ff 24       	eor	r15, r15
    2066:	ee 24       	eor	r14, r14
    2068:	8e 89       	ldd	r24, Y+22	; 0x16
    206a:	90 e0       	ldi	r25, 0x00	; 0
    206c:	a0 e0       	ldi	r26, 0x00	; 0
    206e:	b0 e0       	ldi	r27, 0x00	; 0
    2070:	dc 01       	movw	r26, r24
    2072:	99 27       	eor	r25, r25
    2074:	88 27       	eor	r24, r24
    2076:	e8 2a       	or	r14, r24
    2078:	f9 2a       	or	r15, r25
    207a:	0a 2b       	or	r16, r26
    207c:	1b 2b       	or	r17, r27
    207e:	8c 89       	ldd	r24, Y+20	; 0x14
    2080:	90 e0       	ldi	r25, 0x00	; 0
    2082:	a0 e0       	ldi	r26, 0x00	; 0
    2084:	b0 e0       	ldi	r27, 0x00	; 0
    2086:	e8 2a       	or	r14, r24
    2088:	f9 2a       	or	r15, r25
    208a:	0a 2b       	or	r16, r26
    208c:	1b 2b       	or	r17, r27
    208e:	9d 89       	ldd	r25, Y+21	; 0x15
    2090:	80 e0       	ldi	r24, 0x00	; 0
    2092:	a0 e0       	ldi	r26, 0x00	; 0
    2094:	b0 e0       	ldi	r27, 0x00	; 0
    2096:	e8 2a       	or	r14, r24
    2098:	f9 2a       	or	r15, r25
    209a:	0a 2b       	or	r16, r26
    209c:	1b 2b       	or	r17, r27
	mclst = (tsect						/* Last cluster# + 1 */
    209e:	9b 81       	ldd	r25, Y+3	; 0x03
    20a0:	80 e0       	ldi	r24, 0x00	; 0
    20a2:	2a 81       	ldd	r18, Y+2	; 0x02
    20a4:	30 e0       	ldi	r19, 0x00	; 0
    20a6:	82 2b       	or	r24, r18
    20a8:	93 2b       	or	r25, r19
    20aa:	a0 e0       	ldi	r26, 0x00	; 0
    20ac:	b0 e0       	ldi	r27, 0x00	; 0
    20ae:	e8 1a       	sub	r14, r24
    20b0:	f9 0a       	sbc	r15, r25
    20b2:	0a 0b       	sbc	r16, r26
    20b4:	1b 0b       	sbc	r17, r27
    20b6:	e4 18       	sub	r14, r4
    20b8:	f5 08       	sbc	r15, r5
    20ba:	06 09       	sbc	r16, r6
    20bc:	17 09       	sbc	r17, r7
    20be:	e4 e0       	ldi	r30, 0x04	; 4
    20c0:	56 95       	lsr	r21
    20c2:	47 95       	ror	r20
    20c4:	ea 95       	dec	r30
    20c6:	e1 f7       	brne	.-8      	; 0x20c0 <pf_mount+0x23a>
    20c8:	ca 01       	movw	r24, r20
    20ca:	a0 e0       	ldi	r26, 0x00	; 0
    20cc:	b0 e0       	ldi	r27, 0x00	; 0
    20ce:	e8 1a       	sub	r14, r24
    20d0:	f9 0a       	sbc	r15, r25
    20d2:	0a 0b       	sbc	r16, r26
    20d4:	1b 0b       	sbc	r17, r27
    20d6:	f4 01       	movw	r30, r8
    20d8:	22 81       	ldd	r18, Z+2	; 0x02
    20da:	30 e0       	ldi	r19, 0x00	; 0
    20dc:	40 e0       	ldi	r20, 0x00	; 0
    20de:	50 e0       	ldi	r21, 0x00	; 0
    20e0:	c8 01       	movw	r24, r16
    20e2:	b7 01       	movw	r22, r14
    20e4:	0e 94 67 18 	call	0x30ce	; 0x30ce <__udivmodsi4>
    20e8:	2e 5f       	subi	r18, 0xFE	; 254
    20ea:	3f 4f       	sbci	r19, 0xFF	; 255
    20ec:	4f 4f       	sbci	r20, 0xFF	; 255
    20ee:	5f 4f       	sbci	r21, 0xFF	; 255
		- LD_WORD(buf+BPB_RsvdSecCnt-13) - fsize - fs->n_rootdir / 16
		) / fs->csize + 2;
	fs->n_fatent = (CLUST)mclst;
    20f0:	f4 01       	movw	r30, r8
    20f2:	26 83       	std	Z+6, r18	; 0x06
    20f4:	37 83       	std	Z+7, r19	; 0x07
    20f6:	40 87       	std	Z+8, r20	; 0x08
    20f8:	51 87       	std	Z+9, r21	; 0x09

	fmt = FS_FAT16;							/* Determine the FAT sub type */
	if (mclst < 0xFF7) 						/* Number of clusters < 0xFF5 */
    20fa:	27 3f       	cpi	r18, 0xF7	; 247
    20fc:	ff e0       	ldi	r31, 0x0F	; 15
    20fe:	3f 07       	cpc	r19, r31
    2100:	f0 e0       	ldi	r31, 0x00	; 0
    2102:	4f 07       	cpc	r20, r31
    2104:	f0 e0       	ldi	r31, 0x00	; 0
    2106:	5f 07       	cpc	r21, r31
    2108:	10 f4       	brcc	.+4      	; 0x210e <pf_mount+0x288>
    210a:	81 e0       	ldi	r24, 0x01	; 1
    210c:	01 c0       	rjmp	.+2      	; 0x2110 <pf_mount+0x28a>
    210e:	82 e0       	ldi	r24, 0x02	; 2
#if _FS_FAT12
		fmt = FS_FAT12;
#else
		return FR_NO_FILESYSTEM;
#endif
	if (mclst >= 0xFFF7)					/* Number of clusters >= 0xFFF5 */
    2110:	27 5f       	subi	r18, 0xF7	; 247
    2112:	3f 4f       	sbci	r19, 0xFF	; 255
    2114:	40 40       	sbci	r20, 0x00	; 0
    2116:	50 40       	sbci	r21, 0x00	; 0
    2118:	08 f0       	brcs	.+2      	; 0x211c <pf_mount+0x296>
    211a:	83 e0       	ldi	r24, 0x03	; 3
		fmt = FS_FAT32;
#else
		return FR_NO_FILESYSTEM;
#endif

	fs->fs_type = fmt;		/* FAT sub-type */
    211c:	f4 01       	movw	r30, r8
    211e:	80 83       	st	Z, r24
	if (_FS_FAT32 && fmt == FS_FAT32)
    2120:	83 30       	cpi	r24, 0x03	; 3
    2122:	41 f5       	brne	.+80     	; 0x2174 <pf_mount+0x2ee>
		fs->dirbase = LD_DWORD(buf+(BPB_RootClus-13));	/* Root directory start cluster */
    2124:	2b a1       	ldd	r18, Y+35	; 0x23
    2126:	30 e0       	ldi	r19, 0x00	; 0
    2128:	40 e0       	ldi	r20, 0x00	; 0
    212a:	50 e0       	ldi	r21, 0x00	; 0
    212c:	52 2f       	mov	r21, r18
    212e:	44 27       	eor	r20, r20
    2130:	33 27       	eor	r19, r19
    2132:	22 27       	eor	r18, r18
    2134:	8a a1       	ldd	r24, Y+34	; 0x22
    2136:	90 e0       	ldi	r25, 0x00	; 0
    2138:	a0 e0       	ldi	r26, 0x00	; 0
    213a:	b0 e0       	ldi	r27, 0x00	; 0
    213c:	dc 01       	movw	r26, r24
    213e:	99 27       	eor	r25, r25
    2140:	88 27       	eor	r24, r24
    2142:	28 2b       	or	r18, r24
    2144:	39 2b       	or	r19, r25
    2146:	4a 2b       	or	r20, r26
    2148:	5b 2b       	or	r21, r27
    214a:	88 a1       	ldd	r24, Y+32	; 0x20
    214c:	90 e0       	ldi	r25, 0x00	; 0
    214e:	a0 e0       	ldi	r26, 0x00	; 0
    2150:	b0 e0       	ldi	r27, 0x00	; 0
    2152:	28 2b       	or	r18, r24
    2154:	39 2b       	or	r19, r25
    2156:	4a 2b       	or	r20, r26
    2158:	5b 2b       	or	r21, r27
    215a:	99 a1       	ldd	r25, Y+33	; 0x21
    215c:	80 e0       	ldi	r24, 0x00	; 0
    215e:	a0 e0       	ldi	r26, 0x00	; 0
    2160:	b0 e0       	ldi	r27, 0x00	; 0
    2162:	28 2b       	or	r18, r24
    2164:	39 2b       	or	r19, r25
    2166:	4a 2b       	or	r20, r26
    2168:	5b 2b       	or	r21, r27
    216a:	26 87       	std	Z+14, r18	; 0x0e
    216c:	37 87       	std	Z+15, r19	; 0x0f
    216e:	40 8b       	std	Z+16, r20	; 0x10
    2170:	51 8b       	std	Z+17, r21	; 0x11
    2172:	0d c0       	rjmp	.+26     	; 0x218e <pf_mount+0x308>
	else
		fs->dirbase = fs->fatbase + fsize;				/* Root directory start sector (lba) */
    2174:	f4 01       	movw	r30, r8
    2176:	82 85       	ldd	r24, Z+10	; 0x0a
    2178:	93 85       	ldd	r25, Z+11	; 0x0b
    217a:	a4 85       	ldd	r26, Z+12	; 0x0c
    217c:	b5 85       	ldd	r27, Z+13	; 0x0d
    217e:	84 0d       	add	r24, r4
    2180:	95 1d       	adc	r25, r5
    2182:	a6 1d       	adc	r26, r6
    2184:	b7 1d       	adc	r27, r7
    2186:	86 87       	std	Z+14, r24	; 0x0e
    2188:	97 87       	std	Z+15, r25	; 0x0f
    218a:	a0 8b       	std	Z+16, r26	; 0x10
    218c:	b1 8b       	std	Z+17, r27	; 0x11
	fs->database = fs->fatbase + fsize + fs->n_rootdir / 16;	/* Data start sector (lba) */
    218e:	f4 01       	movw	r30, r8
    2190:	84 81       	ldd	r24, Z+4	; 0x04
    2192:	95 81       	ldd	r25, Z+5	; 0x05
    2194:	24 e0       	ldi	r18, 0x04	; 4
    2196:	96 95       	lsr	r25
    2198:	87 95       	ror	r24
    219a:	2a 95       	dec	r18
    219c:	e1 f7       	brne	.-8      	; 0x2196 <pf_mount+0x310>
    219e:	a0 e0       	ldi	r26, 0x00	; 0
    21a0:	b0 e0       	ldi	r27, 0x00	; 0
    21a2:	22 85       	ldd	r18, Z+10	; 0x0a
    21a4:	33 85       	ldd	r19, Z+11	; 0x0b
    21a6:	44 85       	ldd	r20, Z+12	; 0x0c
    21a8:	55 85       	ldd	r21, Z+13	; 0x0d
    21aa:	82 0f       	add	r24, r18
    21ac:	93 1f       	adc	r25, r19
    21ae:	a4 1f       	adc	r26, r20
    21b0:	b5 1f       	adc	r27, r21
    21b2:	84 0d       	add	r24, r4
    21b4:	95 1d       	adc	r25, r5
    21b6:	a6 1d       	adc	r26, r6
    21b8:	b7 1d       	adc	r27, r7
    21ba:	82 8b       	std	Z+18, r24	; 0x12
    21bc:	93 8b       	std	Z+19, r25	; 0x13
    21be:	a4 8b       	std	Z+20, r26	; 0x14
    21c0:	b5 8b       	std	Z+21, r27	; 0x15

	fs->flag = 0;
    21c2:	11 82       	std	Z+1, r1	; 0x01
	FatFs = fs;
    21c4:	90 92 01 02 	sts	0x0201, r9
    21c8:	80 92 00 02 	sts	0x0200, r8
    21cc:	80 e0       	ldi	r24, 0x00	; 0
    21ce:	03 c0       	rjmp	.+6      	; 0x21d6 <pf_mount+0x350>

	return FR_OK;
    21d0:	81 e0       	ldi	r24, 0x01	; 1
    21d2:	01 c0       	rjmp	.+2      	; 0x21d6 <pf_mount+0x350>
    21d4:	87 e0       	ldi	r24, 0x07	; 7
}
    21d6:	a4 96       	adiw	r28, 0x24	; 36
    21d8:	0f b6       	in	r0, 0x3f	; 63
    21da:	f8 94       	cli
    21dc:	de bf       	out	0x3e, r29	; 62
    21de:	0f be       	out	0x3f, r0	; 63
    21e0:	cd bf       	out	0x3d, r28	; 61
    21e2:	cf 91       	pop	r28
    21e4:	df 91       	pop	r29
    21e6:	1f 91       	pop	r17
    21e8:	0f 91       	pop	r16
    21ea:	ff 90       	pop	r15
    21ec:	ef 90       	pop	r14
    21ee:	df 90       	pop	r13
    21f0:	cf 90       	pop	r12
    21f2:	bf 90       	pop	r11
    21f4:	af 90       	pop	r10
    21f6:	9f 90       	pop	r9
    21f8:	8f 90       	pop	r8
    21fa:	7f 90       	pop	r7
    21fc:	6f 90       	pop	r6
    21fe:	5f 90       	pop	r5
    2200:	4f 90       	pop	r4
    2202:	08 95       	ret

00002204 <SPI_Init>:
/* SPI*/
void SPI_Init(void)
{
  /*  -
   ,  MISO */
  SPI_DDRX |= (1<<SPI_MOSI)|(1<<SPI_SCK)|(1<<SPI_SS);
    2204:	87 b3       	in	r24, 0x17	; 23
    2206:	80 6b       	ori	r24, 0xB0	; 176
    2208:	87 bb       	out	0x17, r24	; 23
  SPI_DDRX &= ~(1<<SPI_MISO);
    220a:	be 98       	cbi	0x17, 6	; 23
  
  SPI_PORTX |= (1<<SPI_MOSI)|(1<<SPI_SCK)|(1<<SPI_SS)|(1<<SPI_MISO);
    220c:	88 b3       	in	r24, 0x18	; 24
    220e:	80 6f       	ori	r24, 0xF0	; 240
    2210:	88 bb       	out	0x18, r24	; 24
   
  /* spi,  ,,  0*/
  SPCR = (0<<SPIE)|(1<<SPE)|(0<<DORD)|(1<<MSTR)|(0<<CPOL)|(0<<CPHA)|(0<<SPR1)|(0<<SPR0);
    2212:	80 e5       	ldi	r24, 0x50	; 80
    2214:	8d b9       	out	0x0d, r24	; 13
  SPSR = (1<<SPI2X);
    2216:	81 e0       	ldi	r24, 0x01	; 1
    2218:	8e b9       	out	0x0e, r24	; 14
}
    221a:	08 95       	ret

0000221c <SPI_WriteByte>:

/*    SPI*/
void SPI_WriteByte(unsigned char data)
{
   SPDR = data; 
    221c:	8f b9       	out	0x0f, r24	; 15
   while(!(SPSR & (1<<SPIF)));
    221e:	77 9b       	sbis	0x0e, 7	; 14
    2220:	fe cf       	rjmp	.-4      	; 0x221e <SPI_WriteByte+0x2>
}
    2222:	08 95       	ret

00002224 <SPI_ReadByte>:

/*    SPI*/
unsigned char SPI_ReadByte(void)
{  
   SPDR = 0xff;
    2224:	8f ef       	ldi	r24, 0xFF	; 255
    2226:	8f b9       	out	0x0f, r24	; 15
   while(!(SPSR & (1<<SPIF)));
    2228:	77 9b       	sbis	0x0e, 7	; 14
    222a:	fe cf       	rjmp	.-4      	; 0x2228 <SPI_ReadByte+0x4>
   return SPDR; 
    222c:	8f b1       	in	r24, 0x0f	; 15
}
    222e:	08 95       	ret

00002230 <SPI_WriteReadByte>:

/*      SPI*/
unsigned char SPI_WriteReadByte(unsigned char data)
{  
   SPDR = data;
    2230:	8f b9       	out	0x0f, r24	; 15
   while(!(SPSR & (1<<SPIF)));
    2232:	77 9b       	sbis	0x0e, 7	; 14
    2234:	fe cf       	rjmp	.-4      	; 0x2232 <SPI_WriteReadByte+0x2>
   return SPDR; 
    2236:	8f b1       	in	r24, 0x0f	; 15
}
    2238:	08 95       	ret

0000223a <SPI_WriteArray>:

/*     SPI*/
void SPI_WriteArray(unsigned char num, unsigned char *data)
{
    223a:	98 2f       	mov	r25, r24
    223c:	fb 01       	movw	r30, r22
    223e:	06 c0       	rjmp	.+12     	; 0x224c <SPI_WriteArray+0x12>
   while(num--){
      SPDR = *data++;
    2240:	80 81       	ld	r24, Z
    2242:	8f b9       	out	0x0f, r24	; 15
      while(!(SPSR & (1<<SPIF)));
    2244:	77 9b       	sbis	0x0e, 7	; 14
    2246:	fe cf       	rjmp	.-4      	; 0x2244 <SPI_WriteArray+0xa>

/*     SPI*/
void SPI_WriteArray(unsigned char num, unsigned char *data)
{
   while(num--){
      SPDR = *data++;
    2248:	31 96       	adiw	r30, 0x01	; 1
    224a:	91 50       	subi	r25, 0x01	; 1
}

/*     SPI*/
void SPI_WriteArray(unsigned char num, unsigned char *data)
{
   while(num--){
    224c:	99 23       	and	r25, r25
    224e:	c1 f7       	brne	.-16     	; 0x2240 <SPI_WriteArray+0x6>
      SPDR = *data++;
      while(!(SPSR & (1<<SPIF)));
   }
}
    2250:	08 95       	ret

00002252 <SPI_WriteReadArray>:

/*       SPI*/
void SPI_WriteReadArray(unsigned char num, unsigned char *data)
{
    2252:	98 2f       	mov	r25, r24
    2254:	fb 01       	movw	r30, r22
    2256:	07 c0       	rjmp	.+14     	; 0x2266 <SPI_WriteReadArray+0x14>
   while(num--){
      SPDR = *data;
    2258:	80 81       	ld	r24, Z
    225a:	8f b9       	out	0x0f, r24	; 15
      while(!(SPSR & (1<<SPIF)));
    225c:	77 9b       	sbis	0x0e, 7	; 14
    225e:	fe cf       	rjmp	.-4      	; 0x225c <SPI_WriteReadArray+0xa>
      *data++ = SPDR; 
    2260:	8f b1       	in	r24, 0x0f	; 15
    2262:	81 93       	st	Z+, r24
    2264:	91 50       	subi	r25, 0x01	; 1
}

/*       SPI*/
void SPI_WriteReadArray(unsigned char num, unsigned char *data)
{
   while(num--){
    2266:	99 23       	and	r25, r25
    2268:	b9 f7       	brne	.-18     	; 0x2258 <SPI_WriteReadArray+0x6>
      SPDR = *data;
      while(!(SPSR & (1<<SPIF)));
      *data++ = SPDR; 
   }
}
    226a:	08 95       	ret

0000226c <start_t2>:
#include "timer-2.h"
#include "header.h"

void start_t2(void)
{
    TCNT2 = 0x00;//счетчик в ноль
    226c:	14 bc       	out	0x24, r1	; 36
    SFIOR = 0b00000010;//Сброс предделителя и начало отсчета T2
    226e:	82 e0       	ldi	r24, 0x02	; 2
    2270:	80 bf       	out	0x30, r24	; 48
    TCCR2 = 0b00001101;//Установка предделителя и СТС режим, /128
    2272:	8d e0       	ldi	r24, 0x0D	; 13
    2274:	85 bd       	out	0x25, r24	; 37
}
    2276:	08 95       	ret

00002278 <stop_t2>:

void stop_t2(void)
{
    TCCR2 = 0x00;
    2278:	15 bc       	out	0x25, r1	; 37
}
    227a:	08 95       	ret

0000227c <timer_init>:
#include "timer.h"
#include "header.h"

void timer_init(void)
{
OCR0 = 155;//Число совпадения, проверять кнопки 100 раз в секунду T0
    227c:	8b e9       	ldi	r24, 0x9B	; 155
    227e:	8c bf       	out	0x3c, r24	; 60
OCR2 = 25;//Число совпадения, для запуска измерения точки синусоиды
    2280:	89 e1       	ldi	r24, 0x19	; 25
    2282:	83 bd       	out	0x23, r24	; 35
          //50 раз за полупериод, 5000 раз в 1 секунду
TIMSK = 0b10000010;//Разрешить прерывание по совпадению T0 u T2
    2284:	82 e8       	ldi	r24, 0x82	; 130
    2286:	89 bf       	out	0x39, r24	; 57
}
    2288:	08 95       	ret

0000228a <start_t>:

void start_t(void)
{
	TCNT0 = 0x00;//счетчик в ноль :)
    228a:	12 be       	out	0x32, r1	; 50
	SFIOR = 0b00000001;//Сброс предделителя и начало отсчета
    228c:	81 e0       	ldi	r24, 0x01	; 1
    228e:	80 bf       	out	0x30, r24	; 48
	TCCR0 = 0b00001101;//Установка предделителя и СТС режима, /1024
    2290:	8d e0       	ldi	r24, 0x0D	; 13
    2292:	83 bf       	out	0x33, r24	; 51
}
    2294:	08 95       	ret

00002296 <stop_t>:

void stop_t(void)
{
	TCCR0 = 0x00;
    2296:	13 be       	out	0x33, r1	; 51
}
    2298:	08 95       	ret

0000229a <i2c_init>:
#include "header.h"

void i2c_init(void)
{
    /* Initialize TWI clock: 100kHz, TWPS = 1 => prescaler = 4 */
    TWSR = 1;
    229a:	81 e0       	ldi	r24, 0x01	; 1
    229c:	81 b9       	out	0x01, r24	; 1
    /*For stable operation, must be > 10*/
    TWBR = ((F_CPU/SCL_CLOCK)-16)/8;
    229e:	86 ec       	ldi	r24, 0xC6	; 198
    22a0:	80 b9       	out	0x00, r24	; 0
}
    22a2:	08 95       	ret

000022a4 <i2c_stop>:

void i2c_stop(void)
{
    TWCR = (1<<TWINT) | (1<<TWEN) | (1<<TWSTO);
    22a4:	84 e9       	ldi	r24, 0x94	; 148
    22a6:	86 bf       	out	0x36, r24	; 54
    /* wait until stop condition is executed and bus released */
    while( TWCR & (1<<TWSTO) );
    22a8:	06 b6       	in	r0, 0x36	; 54
    22aa:	04 fc       	sbrc	r0, 4
    22ac:	fd cf       	rjmp	.-6      	; 0x22a8 <i2c_stop+0x4>
}
    22ae:	08 95       	ret

000022b0 <i2c_start>:

unsigned char i2c_start(unsigned char addr)
{
    22b0:	98 2f       	mov	r25, r24
unsigned char twst;

    //send start condition
    TWCR = (1<<TWINT) | (1<<TWSTA) | (1<<TWEN);
    22b2:	84 ea       	ldi	r24, 0xA4	; 164
    22b4:	86 bf       	out	0x36, r24	; 54

    //wait until transmission complited
    while(!(TWCR & (1<<TWINT)));
    22b6:	06 b6       	in	r0, 0x36	; 54
    22b8:	07 fe       	sbrs	r0, 7
    22ba:	fd cf       	rjmp	.-6      	; 0x22b6 <i2c_start+0x6>

    //check value of TWI status reg, mask prescaler bits
    twst = TW_STATUS & 0xF8;
    22bc:	81 b1       	in	r24, 0x01	; 1
    22be:	88 7f       	andi	r24, 0xF8	; 248
    if( (twst != TW_START) && (twst != TW_REP_START) ) return 1;
    22c0:	88 30       	cpi	r24, 0x08	; 8
    22c2:	21 f0       	breq	.+8      	; 0x22cc <i2c_start+0x1c>
    22c4:	80 31       	cpi	r24, 0x10	; 16
    22c6:	11 f0       	breq	.+4      	; 0x22cc <i2c_start+0x1c>
    22c8:	81 e0       	ldi	r24, 0x01	; 1
    22ca:	08 95       	ret

    //send device address
    TWDR = addr;
    22cc:	93 b9       	out	0x03, r25	; 3
    TWCR = (1<<TWINT) | (1<<TWEN);
    22ce:	84 e8       	ldi	r24, 0x84	; 132
    22d0:	86 bf       	out	0x36, r24	; 54

    //wait until transmission completed and ACK/NACK has been received
    while( !(TWCR & (1<<TWINT)) );
    22d2:	06 b6       	in	r0, 0x36	; 54
    22d4:	07 fe       	sbrs	r0, 7
    22d6:	fd cf       	rjmp	.-6      	; 0x22d2 <i2c_start+0x22>

    //check value of TWI Status reg, mask prescaler bits
    twst = TW_STATUS & 0xF8;
    22d8:	91 b1       	in	r25, 0x01	; 1
    22da:	98 7f       	andi	r25, 0xF8	; 248
    if( (twst != TW_MT_SLA_ACK) && (twst != TW_MR_SLA_ACK) ) return 1;
    22dc:	98 31       	cpi	r25, 0x18	; 24
    22de:	11 f4       	brne	.+4      	; 0x22e4 <i2c_start+0x34>
    22e0:	80 e0       	ldi	r24, 0x00	; 0
    22e2:	08 95       	ret
    22e4:	80 e0       	ldi	r24, 0x00	; 0
    22e6:	90 34       	cpi	r25, 0x40	; 64
    22e8:	09 f0       	breq	.+2      	; 0x22ec <i2c_start+0x3c>
    22ea:	81 e0       	ldi	r24, 0x01	; 1

return 0;
}
    22ec:	08 95       	ret

000022ee <i2c_start_wait>:
unsigned char twst;

    while ( 1 )
    {
        //send Start condition
        TWCR = (1<<TWINT) | (1<<TWSTA) | (1<<TWEN);
    22ee:	44 ea       	ldi	r20, 0xA4	; 164
        twst = TW_STATUS & 0xF8;
        if( ( twst != TW_START ) && ( twst != TW_REP_START ) ) continue;

        //send device address
        TWDR = addr;
        TWCR = (1<<TWINT) | (1<<TWEN);
    22f0:	34 e8       	ldi	r19, 0x84	; 132
        //check value of TWI Regis status, mask ...
        twst = TW_STATUS & 0xF8;
        if( (twst == TW_MT_SLA_NACK) || (twst == TW_MR_DATA_NACK) )
        {
            //device busy, send stop condition to terminate write operation
            TWCR = (1<<TWINT) | (1<<TWEN) | (1<<TWSTO);
    22f2:	24 e9       	ldi	r18, 0x94	; 148
unsigned char twst;

    while ( 1 )
    {
        //send Start condition
        TWCR = (1<<TWINT) | (1<<TWSTA) | (1<<TWEN);
    22f4:	46 bf       	out	0x36, r20	; 54

        //wait until transm compl
        while( !( TWCR & (1<<TWINT) ) );
    22f6:	06 b6       	in	r0, 0x36	; 54
    22f8:	07 fe       	sbrs	r0, 7
    22fa:	fd cf       	rjmp	.-6      	; 0x22f6 <i2c_start_wait+0x8>

        //check value of register TWI status, mask prescaler bits
        twst = TW_STATUS & 0xF8;
    22fc:	91 b1       	in	r25, 0x01	; 1
    22fe:	98 7f       	andi	r25, 0xF8	; 248
        if( ( twst != TW_START ) && ( twst != TW_REP_START ) ) continue;
    2300:	98 30       	cpi	r25, 0x08	; 8
    2302:	11 f0       	breq	.+4      	; 0x2308 <i2c_start_wait+0x1a>
    2304:	90 31       	cpi	r25, 0x10	; 16
    2306:	b1 f7       	brne	.-20     	; 0x22f4 <i2c_start_wait+0x6>

        //send device address
        TWDR = addr;
    2308:	83 b9       	out	0x03, r24	; 3
        TWCR = (1<<TWINT) | (1<<TWEN);
    230a:	36 bf       	out	0x36, r19	; 54

        //wait until transmiss compl
        while( !( TWCR & (1<<TWINT) ) );
    230c:	06 b6       	in	r0, 0x36	; 54
    230e:	07 fe       	sbrs	r0, 7
    2310:	fd cf       	rjmp	.-6      	; 0x230c <i2c_start_wait+0x1e>

        //check value of TWI Regis status, mask ...
        twst = TW_STATUS & 0xF8;
    2312:	91 b1       	in	r25, 0x01	; 1
    2314:	98 7f       	andi	r25, 0xF8	; 248
        if( (twst == TW_MT_SLA_NACK) || (twst == TW_MR_DATA_NACK) )
    2316:	90 32       	cpi	r25, 0x20	; 32
    2318:	11 f0       	breq	.+4      	; 0x231e <i2c_start_wait+0x30>
    231a:	98 35       	cpi	r25, 0x58	; 88
    231c:	29 f4       	brne	.+10     	; 0x2328 <i2c_start_wait+0x3a>
        {
            //device busy, send stop condition to terminate write operation
            TWCR = (1<<TWINT) | (1<<TWEN) | (1<<TWSTO);
    231e:	26 bf       	out	0x36, r18	; 54

            //wait until stop condition is executed and bus released
            while( TWCR & (1<<TWSTO) );
    2320:	06 b6       	in	r0, 0x36	; 54
    2322:	04 fc       	sbrc	r0, 4
    2324:	fd cf       	rjmp	.-6      	; 0x2320 <i2c_start_wait+0x32>
    2326:	e6 cf       	rjmp	.-52     	; 0x22f4 <i2c_start_wait+0x6>
    2328:	08 95       	ret

0000232a <i2c_rep_start>:
    }
}

unsigned char i2c_rep_start(unsigned char addr)
{
    return i2c_start( addr );
    232a:	0e 94 58 11 	call	0x22b0	; 0x22b0 <i2c_start>
}
    232e:	08 95       	ret

00002330 <i2c_wrt>:
unsigned char i2c_wrt(unsigned char data)
{
unsigned char twst;

    //send data to the previously addressed device
    TWDR = data;
    2330:	83 b9       	out	0x03, r24	; 3
    TWCR = (1<<TWINT) | (1<<TWEN);
    2332:	84 e8       	ldi	r24, 0x84	; 132
    2334:	86 bf       	out	0x36, r24	; 54

    //wait ...
    while( !( TWCR & (1<<TWINT) ) );
    2336:	06 b6       	in	r0, 0x36	; 54
    2338:	07 fe       	sbrs	r0, 7
    233a:	fd cf       	rjmp	.-6      	; 0x2336 <i2c_wrt+0x6>

    //check value of TSR(TWI STATUS REGISTER). mask...
    twst = TW_STATUS & 0xF8;
    233c:	81 b1       	in	r24, 0x01	; 1
    233e:	90 e0       	ldi	r25, 0x00	; 0
    2340:	88 7f       	andi	r24, 0xF8	; 248
    2342:	88 32       	cpi	r24, 0x28	; 40
    2344:	09 f0       	breq	.+2      	; 0x2348 <i2c_wrt+0x18>
    2346:	91 e0       	ldi	r25, 0x01	; 1
    if( twst != TW_MT_DATA_ACK ) return 1;

return 0;
}
    2348:	89 2f       	mov	r24, r25
    234a:	08 95       	ret

0000234c <i2c_readAck>:

unsigned char i2c_readAck(void)
{
    TWCR = (1<<TWINT) | (1<<TWEN) | (1<<TWEA);
    234c:	84 ec       	ldi	r24, 0xC4	; 196
    234e:	86 bf       	out	0x36, r24	; 54
    while( !( TWCR & (1<<TWINT) ) );
    2350:	06 b6       	in	r0, 0x36	; 54
    2352:	07 fe       	sbrs	r0, 7
    2354:	fd cf       	rjmp	.-6      	; 0x2350 <i2c_readAck+0x4>

    return TWDR;
    2356:	83 b1       	in	r24, 0x03	; 3
}
    2358:	08 95       	ret

0000235a <i2c_readNak>:

unsigned char i2c_readNak(void)
{
    TWCR = (1<<TWINT) | (1<<TWEN);
    235a:	84 e8       	ldi	r24, 0x84	; 132
    235c:	86 bf       	out	0x36, r24	; 54
    while( !( TWCR & (1<<TWINT) ) );
    235e:	06 b6       	in	r0, 0x36	; 54
    2360:	07 fe       	sbrs	r0, 7
    2362:	fd cf       	rjmp	.-6      	; 0x235e <i2c_readNak+0x4>

    return TWDR;
    2364:	83 b1       	in	r24, 0x03	; 3
}
    2366:	08 95       	ret

00002368 <__udivdi3>:
    2368:	ae e5       	ldi	r26, 0x5E	; 94
    236a:	b0 e0       	ldi	r27, 0x00	; 0
    236c:	ea eb       	ldi	r30, 0xBA	; 186
    236e:	f1 e1       	ldi	r31, 0x11	; 17
    2370:	0c 94 9d 18 	jmp	0x313a	; 0x313a <__prologue_saves__>
    2374:	a8 e0       	ldi	r26, 0x08	; 8
    2376:	4e 01       	movw	r8, r28
    2378:	08 94       	sec
    237a:	81 1c       	adc	r8, r1
    237c:	91 1c       	adc	r9, r1
    237e:	f4 01       	movw	r30, r8
    2380:	6a 2e       	mov	r6, r26
    2382:	11 92       	st	Z+, r1
    2384:	6a 94       	dec	r6
    2386:	e9 f7       	brne	.-6      	; 0x2382 <__udivdi3+0x1a>
    2388:	29 83       	std	Y+1, r18	; 0x01
    238a:	3a 83       	std	Y+2, r19	; 0x02
    238c:	4b 83       	std	Y+3, r20	; 0x03
    238e:	5c 83       	std	Y+4, r21	; 0x04
    2390:	6d 83       	std	Y+5, r22	; 0x05
    2392:	7e 83       	std	Y+6, r23	; 0x06
    2394:	8f 83       	std	Y+7, r24	; 0x07
    2396:	98 87       	std	Y+8, r25	; 0x08
    2398:	ce 01       	movw	r24, r28
    239a:	09 96       	adiw	r24, 0x09	; 9
    239c:	fc 01       	movw	r30, r24
    239e:	11 92       	st	Z+, r1
    23a0:	aa 95       	dec	r26
    23a2:	e9 f7       	brne	.-6      	; 0x239e <__udivdi3+0x36>
    23a4:	a9 86       	std	Y+9, r10	; 0x09
    23a6:	ba 86       	std	Y+10, r11	; 0x0a
    23a8:	cb 86       	std	Y+11, r12	; 0x0b
    23aa:	dc 86       	std	Y+12, r13	; 0x0c
    23ac:	ed 86       	std	Y+13, r14	; 0x0d
    23ae:	fe 86       	std	Y+14, r15	; 0x0e
    23b0:	0f 87       	std	Y+15, r16	; 0x0f
    23b2:	18 8b       	std	Y+16, r17	; 0x10
    23b4:	29 84       	ldd	r2, Y+9	; 0x09
    23b6:	3a 84       	ldd	r3, Y+10	; 0x0a
    23b8:	4b 84       	ldd	r4, Y+11	; 0x0b
    23ba:	5c 84       	ldd	r5, Y+12	; 0x0c
    23bc:	ed 84       	ldd	r14, Y+13	; 0x0d
    23be:	fe 84       	ldd	r15, Y+14	; 0x0e
    23c0:	0f 85       	ldd	r16, Y+15	; 0x0f
    23c2:	18 89       	ldd	r17, Y+16	; 0x10
    23c4:	69 80       	ldd	r6, Y+1	; 0x01
    23c6:	7a 80       	ldd	r7, Y+2	; 0x02
    23c8:	8b 80       	ldd	r8, Y+3	; 0x03
    23ca:	9c 80       	ldd	r9, Y+4	; 0x04
    23cc:	6d a6       	std	Y+45, r6	; 0x2d
    23ce:	7e a6       	std	Y+46, r7	; 0x2e
    23d0:	8f a6       	std	Y+47, r8	; 0x2f
    23d2:	98 aa       	std	Y+48, r9	; 0x30
    23d4:	6d 80       	ldd	r6, Y+5	; 0x05
    23d6:	7e 80       	ldd	r7, Y+6	; 0x06
    23d8:	8f 80       	ldd	r8, Y+7	; 0x07
    23da:	98 84       	ldd	r9, Y+8	; 0x08
    23dc:	e1 14       	cp	r14, r1
    23de:	f1 04       	cpc	r15, r1
    23e0:	01 05       	cpc	r16, r1
    23e2:	11 05       	cpc	r17, r1
    23e4:	09 f0       	breq	.+2      	; 0x23e8 <__udivdi3+0x80>
    23e6:	b3 c3       	rjmp	.+1894   	; 0x2b4e <__udivdi3+0x7e6>
    23e8:	62 14       	cp	r6, r2
    23ea:	73 04       	cpc	r7, r3
    23ec:	84 04       	cpc	r8, r4
    23ee:	95 04       	cpc	r9, r5
    23f0:	08 f0       	brcs	.+2      	; 0x23f4 <__udivdi3+0x8c>
    23f2:	3d c1       	rjmp	.+634    	; 0x266e <__udivdi3+0x306>
    23f4:	00 e0       	ldi	r16, 0x00	; 0
    23f6:	20 16       	cp	r2, r16
    23f8:	00 e0       	ldi	r16, 0x00	; 0
    23fa:	30 06       	cpc	r3, r16
    23fc:	01 e0       	ldi	r16, 0x01	; 1
    23fe:	40 06       	cpc	r4, r16
    2400:	00 e0       	ldi	r16, 0x00	; 0
    2402:	50 06       	cpc	r5, r16
    2404:	88 f4       	brcc	.+34     	; 0x2428 <__udivdi3+0xc0>
    2406:	1f ef       	ldi	r17, 0xFF	; 255
    2408:	21 16       	cp	r2, r17
    240a:	31 04       	cpc	r3, r1
    240c:	41 04       	cpc	r4, r1
    240e:	51 04       	cpc	r5, r1
    2410:	39 f0       	breq	.+14     	; 0x2420 <__udivdi3+0xb8>
    2412:	30 f0       	brcs	.+12     	; 0x2420 <__udivdi3+0xb8>
    2414:	48 e0       	ldi	r20, 0x08	; 8
    2416:	e4 2e       	mov	r14, r20
    2418:	f1 2c       	mov	r15, r1
    241a:	01 2d       	mov	r16, r1
    241c:	11 2d       	mov	r17, r1
    241e:	18 c0       	rjmp	.+48     	; 0x2450 <__udivdi3+0xe8>
    2420:	ee 24       	eor	r14, r14
    2422:	ff 24       	eor	r15, r15
    2424:	87 01       	movw	r16, r14
    2426:	14 c0       	rjmp	.+40     	; 0x2450 <__udivdi3+0xe8>
    2428:	20 e0       	ldi	r18, 0x00	; 0
    242a:	22 16       	cp	r2, r18
    242c:	20 e0       	ldi	r18, 0x00	; 0
    242e:	32 06       	cpc	r3, r18
    2430:	20 e0       	ldi	r18, 0x00	; 0
    2432:	42 06       	cpc	r4, r18
    2434:	21 e0       	ldi	r18, 0x01	; 1
    2436:	52 06       	cpc	r5, r18
    2438:	30 f0       	brcs	.+12     	; 0x2446 <__udivdi3+0xde>
    243a:	38 e1       	ldi	r19, 0x18	; 24
    243c:	e3 2e       	mov	r14, r19
    243e:	f1 2c       	mov	r15, r1
    2440:	01 2d       	mov	r16, r1
    2442:	11 2d       	mov	r17, r1
    2444:	05 c0       	rjmp	.+10     	; 0x2450 <__udivdi3+0xe8>
    2446:	20 e1       	ldi	r18, 0x10	; 16
    2448:	e2 2e       	mov	r14, r18
    244a:	f1 2c       	mov	r15, r1
    244c:	01 2d       	mov	r16, r1
    244e:	11 2d       	mov	r17, r1
    2450:	d2 01       	movw	r26, r4
    2452:	c1 01       	movw	r24, r2
    2454:	0e 2c       	mov	r0, r14
    2456:	04 c0       	rjmp	.+8      	; 0x2460 <__udivdi3+0xf8>
    2458:	b6 95       	lsr	r27
    245a:	a7 95       	ror	r26
    245c:	97 95       	ror	r25
    245e:	87 95       	ror	r24
    2460:	0a 94       	dec	r0
    2462:	d2 f7       	brpl	.-12     	; 0x2458 <__udivdi3+0xf0>
    2464:	8c 51       	subi	r24, 0x1C	; 28
    2466:	9f 4f       	sbci	r25, 0xFF	; 255
    2468:	dc 01       	movw	r26, r24
    246a:	2c 91       	ld	r18, X
    246c:	80 e2       	ldi	r24, 0x20	; 32
    246e:	90 e0       	ldi	r25, 0x00	; 0
    2470:	a0 e0       	ldi	r26, 0x00	; 0
    2472:	b0 e0       	ldi	r27, 0x00	; 0
    2474:	8e 19       	sub	r24, r14
    2476:	9f 09       	sbc	r25, r15
    2478:	a0 0b       	sbc	r26, r16
    247a:	b1 0b       	sbc	r27, r17
    247c:	7c 01       	movw	r14, r24
    247e:	8d 01       	movw	r16, r26
    2480:	e2 1a       	sub	r14, r18
    2482:	f1 08       	sbc	r15, r1
    2484:	01 09       	sbc	r16, r1
    2486:	11 09       	sbc	r17, r1
    2488:	e1 14       	cp	r14, r1
    248a:	f1 04       	cpc	r15, r1
    248c:	01 05       	cpc	r16, r1
    248e:	11 05       	cpc	r17, r1
    2490:	a1 f1       	breq	.+104    	; 0x24fa <__udivdi3+0x192>
    2492:	0e 2c       	mov	r0, r14
    2494:	04 c0       	rjmp	.+8      	; 0x249e <__udivdi3+0x136>
    2496:	22 0c       	add	r2, r2
    2498:	33 1c       	adc	r3, r3
    249a:	44 1c       	adc	r4, r4
    249c:	55 1c       	adc	r5, r5
    249e:	0a 94       	dec	r0
    24a0:	d2 f7       	brpl	.-12     	; 0x2496 <__udivdi3+0x12e>
    24a2:	a4 01       	movw	r20, r8
    24a4:	93 01       	movw	r18, r6
    24a6:	0e 2c       	mov	r0, r14
    24a8:	04 c0       	rjmp	.+8      	; 0x24b2 <__udivdi3+0x14a>
    24aa:	22 0f       	add	r18, r18
    24ac:	33 1f       	adc	r19, r19
    24ae:	44 1f       	adc	r20, r20
    24b0:	55 1f       	adc	r21, r21
    24b2:	0a 94       	dec	r0
    24b4:	d2 f7       	brpl	.-12     	; 0x24aa <__udivdi3+0x142>
    24b6:	80 e2       	ldi	r24, 0x20	; 32
    24b8:	90 e0       	ldi	r25, 0x00	; 0
    24ba:	8e 19       	sub	r24, r14
    24bc:	9f 09       	sbc	r25, r15
    24be:	6d a4       	ldd	r6, Y+45	; 0x2d
    24c0:	7e a4       	ldd	r7, Y+46	; 0x2e
    24c2:	8f a4       	ldd	r8, Y+47	; 0x2f
    24c4:	98 a8       	ldd	r9, Y+48	; 0x30
    24c6:	04 c0       	rjmp	.+8      	; 0x24d0 <__udivdi3+0x168>
    24c8:	96 94       	lsr	r9
    24ca:	87 94       	ror	r8
    24cc:	77 94       	ror	r7
    24ce:	67 94       	ror	r6
    24d0:	8a 95       	dec	r24
    24d2:	d2 f7       	brpl	.-12     	; 0x24c8 <__udivdi3+0x160>
    24d4:	62 2a       	or	r6, r18
    24d6:	73 2a       	or	r7, r19
    24d8:	84 2a       	or	r8, r20
    24da:	95 2a       	or	r9, r21
    24dc:	ad a4       	ldd	r10, Y+45	; 0x2d
    24de:	be a4       	ldd	r11, Y+46	; 0x2e
    24e0:	cf a4       	ldd	r12, Y+47	; 0x2f
    24e2:	d8 a8       	ldd	r13, Y+48	; 0x30
    24e4:	04 c0       	rjmp	.+8      	; 0x24ee <__udivdi3+0x186>
    24e6:	aa 0c       	add	r10, r10
    24e8:	bb 1c       	adc	r11, r11
    24ea:	cc 1c       	adc	r12, r12
    24ec:	dd 1c       	adc	r13, r13
    24ee:	ea 94       	dec	r14
    24f0:	d2 f7       	brpl	.-12     	; 0x24e6 <__udivdi3+0x17e>
    24f2:	ad a6       	std	Y+45, r10	; 0x2d
    24f4:	be a6       	std	Y+46, r11	; 0x2e
    24f6:	cf a6       	std	Y+47, r12	; 0x2f
    24f8:	d8 aa       	std	Y+48, r13	; 0x30
    24fa:	62 01       	movw	r12, r4
    24fc:	ee 24       	eor	r14, r14
    24fe:	ff 24       	eor	r15, r15
    2500:	cd aa       	std	Y+53, r12	; 0x35
    2502:	de aa       	std	Y+54, r13	; 0x36
    2504:	ef aa       	std	Y+55, r14	; 0x37
    2506:	f8 ae       	std	Y+56, r15	; 0x38
    2508:	92 01       	movw	r18, r4
    250a:	81 01       	movw	r16, r2
    250c:	20 70       	andi	r18, 0x00	; 0
    250e:	30 70       	andi	r19, 0x00	; 0
    2510:	09 af       	std	Y+57, r16	; 0x39
    2512:	1a af       	std	Y+58, r17	; 0x3a
    2514:	2b af       	std	Y+59, r18	; 0x3b
    2516:	3c af       	std	Y+60, r19	; 0x3c
    2518:	c4 01       	movw	r24, r8
    251a:	b3 01       	movw	r22, r6
    251c:	a7 01       	movw	r20, r14
    251e:	96 01       	movw	r18, r12
    2520:	0e 94 67 18 	call	0x30ce	; 0x30ce <__udivmodsi4>
    2524:	7b 01       	movw	r14, r22
    2526:	8c 01       	movw	r16, r24
    2528:	c4 01       	movw	r24, r8
    252a:	b3 01       	movw	r22, r6
    252c:	2d a9       	ldd	r18, Y+53	; 0x35
    252e:	3e a9       	ldd	r19, Y+54	; 0x36
    2530:	4f a9       	ldd	r20, Y+55	; 0x37
    2532:	58 ad       	ldd	r21, Y+56	; 0x38
    2534:	0e 94 67 18 	call	0x30ce	; 0x30ce <__udivmodsi4>
    2538:	c9 01       	movw	r24, r18
    253a:	da 01       	movw	r26, r20
    253c:	3c 01       	movw	r6, r24
    253e:	4d 01       	movw	r8, r26
    2540:	c4 01       	movw	r24, r8
    2542:	b3 01       	movw	r22, r6
    2544:	29 ad       	ldd	r18, Y+57	; 0x39
    2546:	3a ad       	ldd	r19, Y+58	; 0x3a
    2548:	4b ad       	ldd	r20, Y+59	; 0x3b
    254a:	5c ad       	ldd	r21, Y+60	; 0x3c
    254c:	0e 94 29 18 	call	0x3052	; 0x3052 <__mulsi3>
    2550:	9b 01       	movw	r18, r22
    2552:	ac 01       	movw	r20, r24
    2554:	87 01       	movw	r16, r14
    2556:	ff 24       	eor	r15, r15
    2558:	ee 24       	eor	r14, r14
    255a:	ad a4       	ldd	r10, Y+45	; 0x2d
    255c:	be a4       	ldd	r11, Y+46	; 0x2e
    255e:	cf a4       	ldd	r12, Y+47	; 0x2f
    2560:	d8 a8       	ldd	r13, Y+48	; 0x30
    2562:	c6 01       	movw	r24, r12
    2564:	aa 27       	eor	r26, r26
    2566:	bb 27       	eor	r27, r27
    2568:	57 01       	movw	r10, r14
    256a:	68 01       	movw	r12, r16
    256c:	a8 2a       	or	r10, r24
    256e:	b9 2a       	or	r11, r25
    2570:	ca 2a       	or	r12, r26
    2572:	db 2a       	or	r13, r27
    2574:	a2 16       	cp	r10, r18
    2576:	b3 06       	cpc	r11, r19
    2578:	c4 06       	cpc	r12, r20
    257a:	d5 06       	cpc	r13, r21
    257c:	e0 f4       	brcc	.+56     	; 0x25b6 <__udivdi3+0x24e>
    257e:	08 94       	sec
    2580:	61 08       	sbc	r6, r1
    2582:	71 08       	sbc	r7, r1
    2584:	81 08       	sbc	r8, r1
    2586:	91 08       	sbc	r9, r1
    2588:	a2 0c       	add	r10, r2
    258a:	b3 1c       	adc	r11, r3
    258c:	c4 1c       	adc	r12, r4
    258e:	d5 1c       	adc	r13, r5
    2590:	a2 14       	cp	r10, r2
    2592:	b3 04       	cpc	r11, r3
    2594:	c4 04       	cpc	r12, r4
    2596:	d5 04       	cpc	r13, r5
    2598:	70 f0       	brcs	.+28     	; 0x25b6 <__udivdi3+0x24e>
    259a:	a2 16       	cp	r10, r18
    259c:	b3 06       	cpc	r11, r19
    259e:	c4 06       	cpc	r12, r20
    25a0:	d5 06       	cpc	r13, r21
    25a2:	48 f4       	brcc	.+18     	; 0x25b6 <__udivdi3+0x24e>
    25a4:	08 94       	sec
    25a6:	61 08       	sbc	r6, r1
    25a8:	71 08       	sbc	r7, r1
    25aa:	81 08       	sbc	r8, r1
    25ac:	91 08       	sbc	r9, r1
    25ae:	a2 0c       	add	r10, r2
    25b0:	b3 1c       	adc	r11, r3
    25b2:	c4 1c       	adc	r12, r4
    25b4:	d5 1c       	adc	r13, r5
    25b6:	a2 1a       	sub	r10, r18
    25b8:	b3 0a       	sbc	r11, r19
    25ba:	c4 0a       	sbc	r12, r20
    25bc:	d5 0a       	sbc	r13, r21
    25be:	c6 01       	movw	r24, r12
    25c0:	b5 01       	movw	r22, r10
    25c2:	2d a9       	ldd	r18, Y+53	; 0x35
    25c4:	3e a9       	ldd	r19, Y+54	; 0x36
    25c6:	4f a9       	ldd	r20, Y+55	; 0x37
    25c8:	58 ad       	ldd	r21, Y+56	; 0x38
    25ca:	0e 94 67 18 	call	0x30ce	; 0x30ce <__udivmodsi4>
    25ce:	7b 01       	movw	r14, r22
    25d0:	8c 01       	movw	r16, r24
    25d2:	c6 01       	movw	r24, r12
    25d4:	b5 01       	movw	r22, r10
    25d6:	2d a9       	ldd	r18, Y+53	; 0x35
    25d8:	3e a9       	ldd	r19, Y+54	; 0x36
    25da:	4f a9       	ldd	r20, Y+55	; 0x37
    25dc:	58 ad       	ldd	r21, Y+56	; 0x38
    25de:	0e 94 67 18 	call	0x30ce	; 0x30ce <__udivmodsi4>
    25e2:	c9 01       	movw	r24, r18
    25e4:	da 01       	movw	r26, r20
    25e6:	5c 01       	movw	r10, r24
    25e8:	6d 01       	movw	r12, r26
    25ea:	c6 01       	movw	r24, r12
    25ec:	b5 01       	movw	r22, r10
    25ee:	29 ad       	ldd	r18, Y+57	; 0x39
    25f0:	3a ad       	ldd	r19, Y+58	; 0x3a
    25f2:	4b ad       	ldd	r20, Y+59	; 0x3b
    25f4:	5c ad       	ldd	r21, Y+60	; 0x3c
    25f6:	0e 94 29 18 	call	0x3052	; 0x3052 <__mulsi3>
    25fa:	9b 01       	movw	r18, r22
    25fc:	ac 01       	movw	r20, r24
    25fe:	87 01       	movw	r16, r14
    2600:	ff 24       	eor	r15, r15
    2602:	ee 24       	eor	r14, r14
    2604:	8d a5       	ldd	r24, Y+45	; 0x2d
    2606:	9e a5       	ldd	r25, Y+46	; 0x2e
    2608:	af a5       	ldd	r26, Y+47	; 0x2f
    260a:	b8 a9       	ldd	r27, Y+48	; 0x30
    260c:	a0 70       	andi	r26, 0x00	; 0
    260e:	b0 70       	andi	r27, 0x00	; 0
    2610:	e8 2a       	or	r14, r24
    2612:	f9 2a       	or	r15, r25
    2614:	0a 2b       	or	r16, r26
    2616:	1b 2b       	or	r17, r27
    2618:	e2 16       	cp	r14, r18
    261a:	f3 06       	cpc	r15, r19
    261c:	04 07       	cpc	r16, r20
    261e:	15 07       	cpc	r17, r21
    2620:	c0 f4       	brcc	.+48     	; 0x2652 <__udivdi3+0x2ea>
    2622:	08 94       	sec
    2624:	a1 08       	sbc	r10, r1
    2626:	b1 08       	sbc	r11, r1
    2628:	c1 08       	sbc	r12, r1
    262a:	d1 08       	sbc	r13, r1
    262c:	e2 0c       	add	r14, r2
    262e:	f3 1c       	adc	r15, r3
    2630:	04 1d       	adc	r16, r4
    2632:	15 1d       	adc	r17, r5
    2634:	e2 14       	cp	r14, r2
    2636:	f3 04       	cpc	r15, r3
    2638:	04 05       	cpc	r16, r4
    263a:	15 05       	cpc	r17, r5
    263c:	50 f0       	brcs	.+20     	; 0x2652 <__udivdi3+0x2ea>
    263e:	e2 16       	cp	r14, r18
    2640:	f3 06       	cpc	r15, r19
    2642:	04 07       	cpc	r16, r20
    2644:	15 07       	cpc	r17, r21
    2646:	28 f4       	brcc	.+10     	; 0x2652 <__udivdi3+0x2ea>
    2648:	08 94       	sec
    264a:	a1 08       	sbc	r10, r1
    264c:	b1 08       	sbc	r11, r1
    264e:	c1 08       	sbc	r12, r1
    2650:	d1 08       	sbc	r13, r1
    2652:	d3 01       	movw	r26, r6
    2654:	99 27       	eor	r25, r25
    2656:	88 27       	eor	r24, r24
    2658:	86 01       	movw	r16, r12
    265a:	75 01       	movw	r14, r10
    265c:	e8 2a       	or	r14, r24
    265e:	f9 2a       	or	r15, r25
    2660:	0a 2b       	or	r16, r26
    2662:	1b 2b       	or	r17, r27
    2664:	e9 aa       	std	Y+49, r14	; 0x31
    2666:	fa aa       	std	Y+50, r15	; 0x32
    2668:	0b ab       	std	Y+51, r16	; 0x33
    266a:	1c ab       	std	Y+52, r17	; 0x34
    266c:	cf c4       	rjmp	.+2462   	; 0x300c <__udivdi3+0xca4>
    266e:	21 14       	cp	r2, r1
    2670:	31 04       	cpc	r3, r1
    2672:	41 04       	cpc	r4, r1
    2674:	51 04       	cpc	r5, r1
    2676:	71 f4       	brne	.+28     	; 0x2694 <__udivdi3+0x32c>
    2678:	61 e0       	ldi	r22, 0x01	; 1
    267a:	70 e0       	ldi	r23, 0x00	; 0
    267c:	80 e0       	ldi	r24, 0x00	; 0
    267e:	90 e0       	ldi	r25, 0x00	; 0
    2680:	20 e0       	ldi	r18, 0x00	; 0
    2682:	30 e0       	ldi	r19, 0x00	; 0
    2684:	40 e0       	ldi	r20, 0x00	; 0
    2686:	50 e0       	ldi	r21, 0x00	; 0
    2688:	0e 94 67 18 	call	0x30ce	; 0x30ce <__udivmodsi4>
    268c:	c9 01       	movw	r24, r18
    268e:	da 01       	movw	r26, r20
    2690:	1c 01       	movw	r2, r24
    2692:	2d 01       	movw	r4, r26
    2694:	00 e0       	ldi	r16, 0x00	; 0
    2696:	20 16       	cp	r2, r16
    2698:	00 e0       	ldi	r16, 0x00	; 0
    269a:	30 06       	cpc	r3, r16
    269c:	01 e0       	ldi	r16, 0x01	; 1
    269e:	40 06       	cpc	r4, r16
    26a0:	00 e0       	ldi	r16, 0x00	; 0
    26a2:	50 06       	cpc	r5, r16
    26a4:	88 f4       	brcc	.+34     	; 0x26c8 <__udivdi3+0x360>
    26a6:	1f ef       	ldi	r17, 0xFF	; 255
    26a8:	21 16       	cp	r2, r17
    26aa:	31 04       	cpc	r3, r1
    26ac:	41 04       	cpc	r4, r1
    26ae:	51 04       	cpc	r5, r1
    26b0:	31 f0       	breq	.+12     	; 0x26be <__udivdi3+0x356>
    26b2:	28 f0       	brcs	.+10     	; 0x26be <__udivdi3+0x356>
    26b4:	48 e0       	ldi	r20, 0x08	; 8
    26b6:	50 e0       	ldi	r21, 0x00	; 0
    26b8:	60 e0       	ldi	r22, 0x00	; 0
    26ba:	70 e0       	ldi	r23, 0x00	; 0
    26bc:	17 c0       	rjmp	.+46     	; 0x26ec <__udivdi3+0x384>
    26be:	40 e0       	ldi	r20, 0x00	; 0
    26c0:	50 e0       	ldi	r21, 0x00	; 0
    26c2:	60 e0       	ldi	r22, 0x00	; 0
    26c4:	70 e0       	ldi	r23, 0x00	; 0
    26c6:	12 c0       	rjmp	.+36     	; 0x26ec <__udivdi3+0x384>
    26c8:	20 e0       	ldi	r18, 0x00	; 0
    26ca:	22 16       	cp	r2, r18
    26cc:	20 e0       	ldi	r18, 0x00	; 0
    26ce:	32 06       	cpc	r3, r18
    26d0:	20 e0       	ldi	r18, 0x00	; 0
    26d2:	42 06       	cpc	r4, r18
    26d4:	21 e0       	ldi	r18, 0x01	; 1
    26d6:	52 06       	cpc	r5, r18
    26d8:	28 f0       	brcs	.+10     	; 0x26e4 <__udivdi3+0x37c>
    26da:	48 e1       	ldi	r20, 0x18	; 24
    26dc:	50 e0       	ldi	r21, 0x00	; 0
    26de:	60 e0       	ldi	r22, 0x00	; 0
    26e0:	70 e0       	ldi	r23, 0x00	; 0
    26e2:	04 c0       	rjmp	.+8      	; 0x26ec <__udivdi3+0x384>
    26e4:	40 e1       	ldi	r20, 0x10	; 16
    26e6:	50 e0       	ldi	r21, 0x00	; 0
    26e8:	60 e0       	ldi	r22, 0x00	; 0
    26ea:	70 e0       	ldi	r23, 0x00	; 0
    26ec:	d2 01       	movw	r26, r4
    26ee:	c1 01       	movw	r24, r2
    26f0:	04 2e       	mov	r0, r20
    26f2:	04 c0       	rjmp	.+8      	; 0x26fc <__udivdi3+0x394>
    26f4:	b6 95       	lsr	r27
    26f6:	a7 95       	ror	r26
    26f8:	97 95       	ror	r25
    26fa:	87 95       	ror	r24
    26fc:	0a 94       	dec	r0
    26fe:	d2 f7       	brpl	.-12     	; 0x26f4 <__udivdi3+0x38c>
    2700:	8c 51       	subi	r24, 0x1C	; 28
    2702:	9f 4f       	sbci	r25, 0xFF	; 255
    2704:	dc 01       	movw	r26, r24
    2706:	2c 91       	ld	r18, X
    2708:	e0 e2       	ldi	r30, 0x20	; 32
    270a:	ee 2e       	mov	r14, r30
    270c:	f1 2c       	mov	r15, r1
    270e:	01 2d       	mov	r16, r1
    2710:	11 2d       	mov	r17, r1
    2712:	d8 01       	movw	r26, r16
    2714:	c7 01       	movw	r24, r14
    2716:	84 1b       	sub	r24, r20
    2718:	95 0b       	sbc	r25, r21
    271a:	a6 0b       	sbc	r26, r22
    271c:	b7 0b       	sbc	r27, r23
    271e:	82 1b       	sub	r24, r18
    2720:	91 09       	sbc	r25, r1
    2722:	a1 09       	sbc	r26, r1
    2724:	b1 09       	sbc	r27, r1
    2726:	00 97       	sbiw	r24, 0x00	; 0
    2728:	a1 05       	cpc	r26, r1
    272a:	b1 05       	cpc	r27, r1
    272c:	61 f4       	brne	.+24     	; 0x2746 <__udivdi3+0x3de>
    272e:	64 01       	movw	r12, r8
    2730:	53 01       	movw	r10, r6
    2732:	a2 18       	sub	r10, r2
    2734:	b3 08       	sbc	r11, r3
    2736:	c4 08       	sbc	r12, r4
    2738:	d5 08       	sbc	r13, r5
    273a:	31 e0       	ldi	r19, 0x01	; 1
    273c:	63 2e       	mov	r6, r19
    273e:	71 2c       	mov	r7, r1
    2740:	81 2c       	mov	r8, r1
    2742:	91 2c       	mov	r9, r1
    2744:	1e c1       	rjmp	.+572    	; 0x2982 <__udivdi3+0x61a>
    2746:	6f 96       	adiw	r28, 0x1f	; 31
    2748:	8f af       	std	Y+63, r24	; 0x3f
    274a:	6f 97       	sbiw	r28, 0x1f	; 31
    274c:	08 2e       	mov	r0, r24
    274e:	04 c0       	rjmp	.+8      	; 0x2758 <__udivdi3+0x3f0>
    2750:	22 0c       	add	r2, r2
    2752:	33 1c       	adc	r3, r3
    2754:	44 1c       	adc	r4, r4
    2756:	55 1c       	adc	r5, r5
    2758:	0a 94       	dec	r0
    275a:	d2 f7       	brpl	.-12     	; 0x2750 <__udivdi3+0x3e8>
    275c:	ee 2d       	mov	r30, r14
    275e:	e8 1b       	sub	r30, r24
    2760:	64 01       	movw	r12, r8
    2762:	53 01       	movw	r10, r6
    2764:	0e 2e       	mov	r0, r30
    2766:	04 c0       	rjmp	.+8      	; 0x2770 <__udivdi3+0x408>
    2768:	d6 94       	lsr	r13
    276a:	c7 94       	ror	r12
    276c:	b7 94       	ror	r11
    276e:	a7 94       	ror	r10
    2770:	0a 94       	dec	r0
    2772:	d2 f7       	brpl	.-12     	; 0x2768 <__udivdi3+0x400>
    2774:	a4 01       	movw	r20, r8
    2776:	93 01       	movw	r18, r6
    2778:	6f 96       	adiw	r28, 0x1f	; 31
    277a:	0f ac       	ldd	r0, Y+63	; 0x3f
    277c:	6f 97       	sbiw	r28, 0x1f	; 31
    277e:	04 c0       	rjmp	.+8      	; 0x2788 <__udivdi3+0x420>
    2780:	22 0f       	add	r18, r18
    2782:	33 1f       	adc	r19, r19
    2784:	44 1f       	adc	r20, r20
    2786:	55 1f       	adc	r21, r21
    2788:	0a 94       	dec	r0
    278a:	d2 f7       	brpl	.-12     	; 0x2780 <__udivdi3+0x418>
    278c:	6d a4       	ldd	r6, Y+45	; 0x2d
    278e:	7e a4       	ldd	r7, Y+46	; 0x2e
    2790:	8f a4       	ldd	r8, Y+47	; 0x2f
    2792:	98 a8       	ldd	r9, Y+48	; 0x30
    2794:	0e 2e       	mov	r0, r30
    2796:	04 c0       	rjmp	.+8      	; 0x27a0 <__udivdi3+0x438>
    2798:	96 94       	lsr	r9
    279a:	87 94       	ror	r8
    279c:	77 94       	ror	r7
    279e:	67 94       	ror	r6
    27a0:	0a 94       	dec	r0
    27a2:	d2 f7       	brpl	.-12     	; 0x2798 <__udivdi3+0x430>
    27a4:	84 01       	movw	r16, r8
    27a6:	73 01       	movw	r14, r6
    27a8:	e2 2a       	or	r14, r18
    27aa:	f3 2a       	or	r15, r19
    27ac:	04 2b       	or	r16, r20
    27ae:	15 2b       	or	r17, r21
    27b0:	e9 a6       	std	Y+41, r14	; 0x29
    27b2:	fa a6       	std	Y+42, r15	; 0x2a
    27b4:	0b a7       	std	Y+43, r16	; 0x2b
    27b6:	1c a7       	std	Y+44, r17	; 0x2c
    27b8:	32 01       	movw	r6, r4
    27ba:	88 24       	eor	r8, r8
    27bc:	99 24       	eor	r9, r9
    27be:	92 01       	movw	r18, r4
    27c0:	81 01       	movw	r16, r2
    27c2:	20 70       	andi	r18, 0x00	; 0
    27c4:	30 70       	andi	r19, 0x00	; 0
    27c6:	21 96       	adiw	r28, 0x01	; 1
    27c8:	0c af       	std	Y+60, r16	; 0x3c
    27ca:	1d af       	std	Y+61, r17	; 0x3d
    27cc:	2e af       	std	Y+62, r18	; 0x3e
    27ce:	3f af       	std	Y+63, r19	; 0x3f
    27d0:	21 97       	sbiw	r28, 0x01	; 1
    27d2:	c6 01       	movw	r24, r12
    27d4:	b5 01       	movw	r22, r10
    27d6:	a4 01       	movw	r20, r8
    27d8:	93 01       	movw	r18, r6
    27da:	0e 94 67 18 	call	0x30ce	; 0x30ce <__udivmodsi4>
    27de:	7b 01       	movw	r14, r22
    27e0:	8c 01       	movw	r16, r24
    27e2:	c6 01       	movw	r24, r12
    27e4:	b5 01       	movw	r22, r10
    27e6:	a4 01       	movw	r20, r8
    27e8:	93 01       	movw	r18, r6
    27ea:	0e 94 67 18 	call	0x30ce	; 0x30ce <__udivmodsi4>
    27ee:	c9 01       	movw	r24, r18
    27f0:	da 01       	movw	r26, r20
    27f2:	25 96       	adiw	r28, 0x05	; 5
    27f4:	8c af       	std	Y+60, r24	; 0x3c
    27f6:	9d af       	std	Y+61, r25	; 0x3d
    27f8:	ae af       	std	Y+62, r26	; 0x3e
    27fa:	bf af       	std	Y+63, r27	; 0x3f
    27fc:	25 97       	sbiw	r28, 0x05	; 5
    27fe:	bc 01       	movw	r22, r24
    2800:	cd 01       	movw	r24, r26
    2802:	21 96       	adiw	r28, 0x01	; 1
    2804:	2c ad       	ldd	r18, Y+60	; 0x3c
    2806:	3d ad       	ldd	r19, Y+61	; 0x3d
    2808:	4e ad       	ldd	r20, Y+62	; 0x3e
    280a:	5f ad       	ldd	r21, Y+63	; 0x3f
    280c:	21 97       	sbiw	r28, 0x01	; 1
    280e:	0e 94 29 18 	call	0x3052	; 0x3052 <__mulsi3>
    2812:	9b 01       	movw	r18, r22
    2814:	ac 01       	movw	r20, r24
    2816:	87 01       	movw	r16, r14
    2818:	ff 24       	eor	r15, r15
    281a:	ee 24       	eor	r14, r14
    281c:	a9 a4       	ldd	r10, Y+41	; 0x29
    281e:	ba a4       	ldd	r11, Y+42	; 0x2a
    2820:	cb a4       	ldd	r12, Y+43	; 0x2b
    2822:	dc a4       	ldd	r13, Y+44	; 0x2c
    2824:	c6 01       	movw	r24, r12
    2826:	aa 27       	eor	r26, r26
    2828:	bb 27       	eor	r27, r27
    282a:	5c 01       	movw	r10, r24
    282c:	6d 01       	movw	r12, r26
    282e:	ae 28       	or	r10, r14
    2830:	bf 28       	or	r11, r15
    2832:	c0 2a       	or	r12, r16
    2834:	d1 2a       	or	r13, r17
    2836:	a2 16       	cp	r10, r18
    2838:	b3 06       	cpc	r11, r19
    283a:	c4 06       	cpc	r12, r20
    283c:	d5 06       	cpc	r13, r21
    283e:	60 f5       	brcc	.+88     	; 0x2898 <__udivdi3+0x530>
    2840:	25 96       	adiw	r28, 0x05	; 5
    2842:	6c ad       	ldd	r22, Y+60	; 0x3c
    2844:	7d ad       	ldd	r23, Y+61	; 0x3d
    2846:	8e ad       	ldd	r24, Y+62	; 0x3e
    2848:	9f ad       	ldd	r25, Y+63	; 0x3f
    284a:	25 97       	sbiw	r28, 0x05	; 5
    284c:	61 50       	subi	r22, 0x01	; 1
    284e:	70 40       	sbci	r23, 0x00	; 0
    2850:	80 40       	sbci	r24, 0x00	; 0
    2852:	90 40       	sbci	r25, 0x00	; 0
    2854:	25 96       	adiw	r28, 0x05	; 5
    2856:	6c af       	std	Y+60, r22	; 0x3c
    2858:	7d af       	std	Y+61, r23	; 0x3d
    285a:	8e af       	std	Y+62, r24	; 0x3e
    285c:	9f af       	std	Y+63, r25	; 0x3f
    285e:	25 97       	sbiw	r28, 0x05	; 5
    2860:	a2 0c       	add	r10, r2
    2862:	b3 1c       	adc	r11, r3
    2864:	c4 1c       	adc	r12, r4
    2866:	d5 1c       	adc	r13, r5
    2868:	a2 14       	cp	r10, r2
    286a:	b3 04       	cpc	r11, r3
    286c:	c4 04       	cpc	r12, r4
    286e:	d5 04       	cpc	r13, r5
    2870:	98 f0       	brcs	.+38     	; 0x2898 <__udivdi3+0x530>
    2872:	a2 16       	cp	r10, r18
    2874:	b3 06       	cpc	r11, r19
    2876:	c4 06       	cpc	r12, r20
    2878:	d5 06       	cpc	r13, r21
    287a:	70 f4       	brcc	.+28     	; 0x2898 <__udivdi3+0x530>
    287c:	61 50       	subi	r22, 0x01	; 1
    287e:	70 40       	sbci	r23, 0x00	; 0
    2880:	80 40       	sbci	r24, 0x00	; 0
    2882:	90 40       	sbci	r25, 0x00	; 0
    2884:	25 96       	adiw	r28, 0x05	; 5
    2886:	6c af       	std	Y+60, r22	; 0x3c
    2888:	7d af       	std	Y+61, r23	; 0x3d
    288a:	8e af       	std	Y+62, r24	; 0x3e
    288c:	9f af       	std	Y+63, r25	; 0x3f
    288e:	25 97       	sbiw	r28, 0x05	; 5
    2890:	a2 0c       	add	r10, r2
    2892:	b3 1c       	adc	r11, r3
    2894:	c4 1c       	adc	r12, r4
    2896:	d5 1c       	adc	r13, r5
    2898:	a2 1a       	sub	r10, r18
    289a:	b3 0a       	sbc	r11, r19
    289c:	c4 0a       	sbc	r12, r20
    289e:	d5 0a       	sbc	r13, r21
    28a0:	c6 01       	movw	r24, r12
    28a2:	b5 01       	movw	r22, r10
    28a4:	a4 01       	movw	r20, r8
    28a6:	93 01       	movw	r18, r6
    28a8:	0e 94 67 18 	call	0x30ce	; 0x30ce <__udivmodsi4>
    28ac:	7b 01       	movw	r14, r22
    28ae:	8c 01       	movw	r16, r24
    28b0:	c6 01       	movw	r24, r12
    28b2:	b5 01       	movw	r22, r10
    28b4:	a4 01       	movw	r20, r8
    28b6:	93 01       	movw	r18, r6
    28b8:	0e 94 67 18 	call	0x30ce	; 0x30ce <__udivmodsi4>
    28bc:	c9 01       	movw	r24, r18
    28be:	da 01       	movw	r26, r20
    28c0:	3c 01       	movw	r6, r24
    28c2:	4d 01       	movw	r8, r26
    28c4:	c4 01       	movw	r24, r8
    28c6:	b3 01       	movw	r22, r6
    28c8:	21 96       	adiw	r28, 0x01	; 1
    28ca:	2c ad       	ldd	r18, Y+60	; 0x3c
    28cc:	3d ad       	ldd	r19, Y+61	; 0x3d
    28ce:	4e ad       	ldd	r20, Y+62	; 0x3e
    28d0:	5f ad       	ldd	r21, Y+63	; 0x3f
    28d2:	21 97       	sbiw	r28, 0x01	; 1
    28d4:	0e 94 29 18 	call	0x3052	; 0x3052 <__mulsi3>
    28d8:	9b 01       	movw	r18, r22
    28da:	ac 01       	movw	r20, r24
    28dc:	87 01       	movw	r16, r14
    28de:	ff 24       	eor	r15, r15
    28e0:	ee 24       	eor	r14, r14
    28e2:	89 a5       	ldd	r24, Y+41	; 0x29
    28e4:	9a a5       	ldd	r25, Y+42	; 0x2a
    28e6:	ab a5       	ldd	r26, Y+43	; 0x2b
    28e8:	bc a5       	ldd	r27, Y+44	; 0x2c
    28ea:	a0 70       	andi	r26, 0x00	; 0
    28ec:	b0 70       	andi	r27, 0x00	; 0
    28ee:	57 01       	movw	r10, r14
    28f0:	68 01       	movw	r12, r16
    28f2:	a8 2a       	or	r10, r24
    28f4:	b9 2a       	or	r11, r25
    28f6:	ca 2a       	or	r12, r26
    28f8:	db 2a       	or	r13, r27
    28fa:	a2 16       	cp	r10, r18
    28fc:	b3 06       	cpc	r11, r19
    28fe:	c4 06       	cpc	r12, r20
    2900:	d5 06       	cpc	r13, r21
    2902:	e0 f4       	brcc	.+56     	; 0x293c <__udivdi3+0x5d4>
    2904:	08 94       	sec
    2906:	61 08       	sbc	r6, r1
    2908:	71 08       	sbc	r7, r1
    290a:	81 08       	sbc	r8, r1
    290c:	91 08       	sbc	r9, r1
    290e:	a2 0c       	add	r10, r2
    2910:	b3 1c       	adc	r11, r3
    2912:	c4 1c       	adc	r12, r4
    2914:	d5 1c       	adc	r13, r5
    2916:	a2 14       	cp	r10, r2
    2918:	b3 04       	cpc	r11, r3
    291a:	c4 04       	cpc	r12, r4
    291c:	d5 04       	cpc	r13, r5
    291e:	70 f0       	brcs	.+28     	; 0x293c <__udivdi3+0x5d4>
    2920:	a2 16       	cp	r10, r18
    2922:	b3 06       	cpc	r11, r19
    2924:	c4 06       	cpc	r12, r20
    2926:	d5 06       	cpc	r13, r21
    2928:	48 f4       	brcc	.+18     	; 0x293c <__udivdi3+0x5d4>
    292a:	08 94       	sec
    292c:	61 08       	sbc	r6, r1
    292e:	71 08       	sbc	r7, r1
    2930:	81 08       	sbc	r8, r1
    2932:	91 08       	sbc	r9, r1
    2934:	a2 0c       	add	r10, r2
    2936:	b3 1c       	adc	r11, r3
    2938:	c4 1c       	adc	r12, r4
    293a:	d5 1c       	adc	r13, r5
    293c:	8d a5       	ldd	r24, Y+45	; 0x2d
    293e:	9e a5       	ldd	r25, Y+46	; 0x2e
    2940:	af a5       	ldd	r26, Y+47	; 0x2f
    2942:	b8 a9       	ldd	r27, Y+48	; 0x30
    2944:	6f 96       	adiw	r28, 0x1f	; 31
    2946:	0f ac       	ldd	r0, Y+63	; 0x3f
    2948:	6f 97       	sbiw	r28, 0x1f	; 31
    294a:	04 c0       	rjmp	.+8      	; 0x2954 <__udivdi3+0x5ec>
    294c:	88 0f       	add	r24, r24
    294e:	99 1f       	adc	r25, r25
    2950:	aa 1f       	adc	r26, r26
    2952:	bb 1f       	adc	r27, r27
    2954:	0a 94       	dec	r0
    2956:	d2 f7       	brpl	.-12     	; 0x294c <__udivdi3+0x5e4>
    2958:	8d a7       	std	Y+45, r24	; 0x2d
    295a:	9e a7       	std	Y+46, r25	; 0x2e
    295c:	af a7       	std	Y+47, r26	; 0x2f
    295e:	b8 ab       	std	Y+48, r27	; 0x30
    2960:	a2 1a       	sub	r10, r18
    2962:	b3 0a       	sbc	r11, r19
    2964:	c4 0a       	sbc	r12, r20
    2966:	d5 0a       	sbc	r13, r21
    2968:	25 96       	adiw	r28, 0x05	; 5
    296a:	ec ac       	ldd	r14, Y+60	; 0x3c
    296c:	fd ac       	ldd	r15, Y+61	; 0x3d
    296e:	0e ad       	ldd	r16, Y+62	; 0x3e
    2970:	1f ad       	ldd	r17, Y+63	; 0x3f
    2972:	25 97       	sbiw	r28, 0x05	; 5
    2974:	d7 01       	movw	r26, r14
    2976:	99 27       	eor	r25, r25
    2978:	88 27       	eor	r24, r24
    297a:	68 2a       	or	r6, r24
    297c:	79 2a       	or	r7, r25
    297e:	8a 2a       	or	r8, r26
    2980:	9b 2a       	or	r9, r27
    2982:	82 01       	movw	r16, r4
    2984:	22 27       	eor	r18, r18
    2986:	33 27       	eor	r19, r19
    2988:	29 96       	adiw	r28, 0x09	; 9
    298a:	0c af       	std	Y+60, r16	; 0x3c
    298c:	1d af       	std	Y+61, r17	; 0x3d
    298e:	2e af       	std	Y+62, r18	; 0x3e
    2990:	3f af       	std	Y+63, r19	; 0x3f
    2992:	29 97       	sbiw	r28, 0x09	; 9
    2994:	a2 01       	movw	r20, r4
    2996:	91 01       	movw	r18, r2
    2998:	40 70       	andi	r20, 0x00	; 0
    299a:	50 70       	andi	r21, 0x00	; 0
    299c:	2d 96       	adiw	r28, 0x0d	; 13
    299e:	2c af       	std	Y+60, r18	; 0x3c
    29a0:	3d af       	std	Y+61, r19	; 0x3d
    29a2:	4e af       	std	Y+62, r20	; 0x3e
    29a4:	5f af       	std	Y+63, r21	; 0x3f
    29a6:	2d 97       	sbiw	r28, 0x0d	; 13
    29a8:	c6 01       	movw	r24, r12
    29aa:	b5 01       	movw	r22, r10
    29ac:	29 96       	adiw	r28, 0x09	; 9
    29ae:	2c ad       	ldd	r18, Y+60	; 0x3c
    29b0:	3d ad       	ldd	r19, Y+61	; 0x3d
    29b2:	4e ad       	ldd	r20, Y+62	; 0x3e
    29b4:	5f ad       	ldd	r21, Y+63	; 0x3f
    29b6:	29 97       	sbiw	r28, 0x09	; 9
    29b8:	0e 94 67 18 	call	0x30ce	; 0x30ce <__udivmodsi4>
    29bc:	7b 01       	movw	r14, r22
    29be:	8c 01       	movw	r16, r24
    29c0:	c6 01       	movw	r24, r12
    29c2:	b5 01       	movw	r22, r10
    29c4:	29 96       	adiw	r28, 0x09	; 9
    29c6:	2c ad       	ldd	r18, Y+60	; 0x3c
    29c8:	3d ad       	ldd	r19, Y+61	; 0x3d
    29ca:	4e ad       	ldd	r20, Y+62	; 0x3e
    29cc:	5f ad       	ldd	r21, Y+63	; 0x3f
    29ce:	29 97       	sbiw	r28, 0x09	; 9
    29d0:	0e 94 67 18 	call	0x30ce	; 0x30ce <__udivmodsi4>
    29d4:	c9 01       	movw	r24, r18
    29d6:	da 01       	movw	r26, r20
    29d8:	61 96       	adiw	r28, 0x11	; 17
    29da:	8c af       	std	Y+60, r24	; 0x3c
    29dc:	9d af       	std	Y+61, r25	; 0x3d
    29de:	ae af       	std	Y+62, r26	; 0x3e
    29e0:	bf af       	std	Y+63, r27	; 0x3f
    29e2:	61 97       	sbiw	r28, 0x11	; 17
    29e4:	bc 01       	movw	r22, r24
    29e6:	cd 01       	movw	r24, r26
    29e8:	2d 96       	adiw	r28, 0x0d	; 13
    29ea:	2c ad       	ldd	r18, Y+60	; 0x3c
    29ec:	3d ad       	ldd	r19, Y+61	; 0x3d
    29ee:	4e ad       	ldd	r20, Y+62	; 0x3e
    29f0:	5f ad       	ldd	r21, Y+63	; 0x3f
    29f2:	2d 97       	sbiw	r28, 0x0d	; 13
    29f4:	0e 94 29 18 	call	0x3052	; 0x3052 <__mulsi3>
    29f8:	9b 01       	movw	r18, r22
    29fa:	ac 01       	movw	r20, r24
    29fc:	87 01       	movw	r16, r14
    29fe:	ff 24       	eor	r15, r15
    2a00:	ee 24       	eor	r14, r14
    2a02:	ad a4       	ldd	r10, Y+45	; 0x2d
    2a04:	be a4       	ldd	r11, Y+46	; 0x2e
    2a06:	cf a4       	ldd	r12, Y+47	; 0x2f
    2a08:	d8 a8       	ldd	r13, Y+48	; 0x30
    2a0a:	c6 01       	movw	r24, r12
    2a0c:	aa 27       	eor	r26, r26
    2a0e:	bb 27       	eor	r27, r27
    2a10:	57 01       	movw	r10, r14
    2a12:	68 01       	movw	r12, r16
    2a14:	a8 2a       	or	r10, r24
    2a16:	b9 2a       	or	r11, r25
    2a18:	ca 2a       	or	r12, r26
    2a1a:	db 2a       	or	r13, r27
    2a1c:	a2 16       	cp	r10, r18
    2a1e:	b3 06       	cpc	r11, r19
    2a20:	c4 06       	cpc	r12, r20
    2a22:	d5 06       	cpc	r13, r21
    2a24:	60 f5       	brcc	.+88     	; 0x2a7e <__udivdi3+0x716>
    2a26:	61 96       	adiw	r28, 0x11	; 17
    2a28:	6c ad       	ldd	r22, Y+60	; 0x3c
    2a2a:	7d ad       	ldd	r23, Y+61	; 0x3d
    2a2c:	8e ad       	ldd	r24, Y+62	; 0x3e
    2a2e:	9f ad       	ldd	r25, Y+63	; 0x3f
    2a30:	61 97       	sbiw	r28, 0x11	; 17
    2a32:	61 50       	subi	r22, 0x01	; 1
    2a34:	70 40       	sbci	r23, 0x00	; 0
    2a36:	80 40       	sbci	r24, 0x00	; 0
    2a38:	90 40       	sbci	r25, 0x00	; 0
    2a3a:	61 96       	adiw	r28, 0x11	; 17
    2a3c:	6c af       	std	Y+60, r22	; 0x3c
    2a3e:	7d af       	std	Y+61, r23	; 0x3d
    2a40:	8e af       	std	Y+62, r24	; 0x3e
    2a42:	9f af       	std	Y+63, r25	; 0x3f
    2a44:	61 97       	sbiw	r28, 0x11	; 17
    2a46:	a2 0c       	add	r10, r2
    2a48:	b3 1c       	adc	r11, r3
    2a4a:	c4 1c       	adc	r12, r4
    2a4c:	d5 1c       	adc	r13, r5
    2a4e:	a2 14       	cp	r10, r2
    2a50:	b3 04       	cpc	r11, r3
    2a52:	c4 04       	cpc	r12, r4
    2a54:	d5 04       	cpc	r13, r5
    2a56:	98 f0       	brcs	.+38     	; 0x2a7e <__udivdi3+0x716>
    2a58:	a2 16       	cp	r10, r18
    2a5a:	b3 06       	cpc	r11, r19
    2a5c:	c4 06       	cpc	r12, r20
    2a5e:	d5 06       	cpc	r13, r21
    2a60:	70 f4       	brcc	.+28     	; 0x2a7e <__udivdi3+0x716>
    2a62:	61 50       	subi	r22, 0x01	; 1
    2a64:	70 40       	sbci	r23, 0x00	; 0
    2a66:	80 40       	sbci	r24, 0x00	; 0
    2a68:	90 40       	sbci	r25, 0x00	; 0
    2a6a:	61 96       	adiw	r28, 0x11	; 17
    2a6c:	6c af       	std	Y+60, r22	; 0x3c
    2a6e:	7d af       	std	Y+61, r23	; 0x3d
    2a70:	8e af       	std	Y+62, r24	; 0x3e
    2a72:	9f af       	std	Y+63, r25	; 0x3f
    2a74:	61 97       	sbiw	r28, 0x11	; 17
    2a76:	a2 0c       	add	r10, r2
    2a78:	b3 1c       	adc	r11, r3
    2a7a:	c4 1c       	adc	r12, r4
    2a7c:	d5 1c       	adc	r13, r5
    2a7e:	a2 1a       	sub	r10, r18
    2a80:	b3 0a       	sbc	r11, r19
    2a82:	c4 0a       	sbc	r12, r20
    2a84:	d5 0a       	sbc	r13, r21
    2a86:	c6 01       	movw	r24, r12
    2a88:	b5 01       	movw	r22, r10
    2a8a:	29 96       	adiw	r28, 0x09	; 9
    2a8c:	2c ad       	ldd	r18, Y+60	; 0x3c
    2a8e:	3d ad       	ldd	r19, Y+61	; 0x3d
    2a90:	4e ad       	ldd	r20, Y+62	; 0x3e
    2a92:	5f ad       	ldd	r21, Y+63	; 0x3f
    2a94:	29 97       	sbiw	r28, 0x09	; 9
    2a96:	0e 94 67 18 	call	0x30ce	; 0x30ce <__udivmodsi4>
    2a9a:	7b 01       	movw	r14, r22
    2a9c:	8c 01       	movw	r16, r24
    2a9e:	c6 01       	movw	r24, r12
    2aa0:	b5 01       	movw	r22, r10
    2aa2:	29 96       	adiw	r28, 0x09	; 9
    2aa4:	2c ad       	ldd	r18, Y+60	; 0x3c
    2aa6:	3d ad       	ldd	r19, Y+61	; 0x3d
    2aa8:	4e ad       	ldd	r20, Y+62	; 0x3e
    2aaa:	5f ad       	ldd	r21, Y+63	; 0x3f
    2aac:	29 97       	sbiw	r28, 0x09	; 9
    2aae:	0e 94 67 18 	call	0x30ce	; 0x30ce <__udivmodsi4>
    2ab2:	c9 01       	movw	r24, r18
    2ab4:	da 01       	movw	r26, r20
    2ab6:	5c 01       	movw	r10, r24
    2ab8:	6d 01       	movw	r12, r26
    2aba:	c6 01       	movw	r24, r12
    2abc:	b5 01       	movw	r22, r10
    2abe:	2d 96       	adiw	r28, 0x0d	; 13
    2ac0:	2c ad       	ldd	r18, Y+60	; 0x3c
    2ac2:	3d ad       	ldd	r19, Y+61	; 0x3d
    2ac4:	4e ad       	ldd	r20, Y+62	; 0x3e
    2ac6:	5f ad       	ldd	r21, Y+63	; 0x3f
    2ac8:	2d 97       	sbiw	r28, 0x0d	; 13
    2aca:	0e 94 29 18 	call	0x3052	; 0x3052 <__mulsi3>
    2ace:	9b 01       	movw	r18, r22
    2ad0:	ac 01       	movw	r20, r24
    2ad2:	87 01       	movw	r16, r14
    2ad4:	ff 24       	eor	r15, r15
    2ad6:	ee 24       	eor	r14, r14
    2ad8:	8d a5       	ldd	r24, Y+45	; 0x2d
    2ada:	9e a5       	ldd	r25, Y+46	; 0x2e
    2adc:	af a5       	ldd	r26, Y+47	; 0x2f
    2ade:	b8 a9       	ldd	r27, Y+48	; 0x30
    2ae0:	a0 70       	andi	r26, 0x00	; 0
    2ae2:	b0 70       	andi	r27, 0x00	; 0
    2ae4:	e8 2a       	or	r14, r24
    2ae6:	f9 2a       	or	r15, r25
    2ae8:	0a 2b       	or	r16, r26
    2aea:	1b 2b       	or	r17, r27
    2aec:	e2 16       	cp	r14, r18
    2aee:	f3 06       	cpc	r15, r19
    2af0:	04 07       	cpc	r16, r20
    2af2:	15 07       	cpc	r17, r21
    2af4:	c0 f4       	brcc	.+48     	; 0x2b26 <__udivdi3+0x7be>
    2af6:	08 94       	sec
    2af8:	a1 08       	sbc	r10, r1
    2afa:	b1 08       	sbc	r11, r1
    2afc:	c1 08       	sbc	r12, r1
    2afe:	d1 08       	sbc	r13, r1
    2b00:	e2 0c       	add	r14, r2
    2b02:	f3 1c       	adc	r15, r3
    2b04:	04 1d       	adc	r16, r4
    2b06:	15 1d       	adc	r17, r5
    2b08:	e2 14       	cp	r14, r2
    2b0a:	f3 04       	cpc	r15, r3
    2b0c:	04 05       	cpc	r16, r4
    2b0e:	15 05       	cpc	r17, r5
    2b10:	50 f0       	brcs	.+20     	; 0x2b26 <__udivdi3+0x7be>
    2b12:	e2 16       	cp	r14, r18
    2b14:	f3 06       	cpc	r15, r19
    2b16:	04 07       	cpc	r16, r20
    2b18:	15 07       	cpc	r17, r21
    2b1a:	28 f4       	brcc	.+10     	; 0x2b26 <__udivdi3+0x7be>
    2b1c:	08 94       	sec
    2b1e:	a1 08       	sbc	r10, r1
    2b20:	b1 08       	sbc	r11, r1
    2b22:	c1 08       	sbc	r12, r1
    2b24:	d1 08       	sbc	r13, r1
    2b26:	61 96       	adiw	r28, 0x11	; 17
    2b28:	ec ac       	ldd	r14, Y+60	; 0x3c
    2b2a:	fd ac       	ldd	r15, Y+61	; 0x3d
    2b2c:	0e ad       	ldd	r16, Y+62	; 0x3e
    2b2e:	1f ad       	ldd	r17, Y+63	; 0x3f
    2b30:	61 97       	sbiw	r28, 0x11	; 17
    2b32:	d7 01       	movw	r26, r14
    2b34:	99 27       	eor	r25, r25
    2b36:	88 27       	eor	r24, r24
    2b38:	96 01       	movw	r18, r12
    2b3a:	85 01       	movw	r16, r10
    2b3c:	08 2b       	or	r16, r24
    2b3e:	19 2b       	or	r17, r25
    2b40:	2a 2b       	or	r18, r26
    2b42:	3b 2b       	or	r19, r27
    2b44:	09 ab       	std	Y+49, r16	; 0x31
    2b46:	1a ab       	std	Y+50, r17	; 0x32
    2b48:	2b ab       	std	Y+51, r18	; 0x33
    2b4a:	3c ab       	std	Y+52, r19	; 0x34
    2b4c:	62 c2       	rjmp	.+1220   	; 0x3012 <__udivdi3+0xcaa>
    2b4e:	6e 14       	cp	r6, r14
    2b50:	7f 04       	cpc	r7, r15
    2b52:	80 06       	cpc	r8, r16
    2b54:	91 06       	cpc	r9, r17
    2b56:	08 f4       	brcc	.+2      	; 0x2b5a <__udivdi3+0x7f2>
    2b58:	51 c2       	rjmp	.+1186   	; 0x2ffc <__udivdi3+0xc94>
    2b5a:	20 e0       	ldi	r18, 0x00	; 0
    2b5c:	e2 16       	cp	r14, r18
    2b5e:	20 e0       	ldi	r18, 0x00	; 0
    2b60:	f2 06       	cpc	r15, r18
    2b62:	21 e0       	ldi	r18, 0x01	; 1
    2b64:	02 07       	cpc	r16, r18
    2b66:	20 e0       	ldi	r18, 0x00	; 0
    2b68:	12 07       	cpc	r17, r18
    2b6a:	88 f4       	brcc	.+34     	; 0x2b8e <__udivdi3+0x826>
    2b6c:	3f ef       	ldi	r19, 0xFF	; 255
    2b6e:	e3 16       	cp	r14, r19
    2b70:	f1 04       	cpc	r15, r1
    2b72:	01 05       	cpc	r16, r1
    2b74:	11 05       	cpc	r17, r1
    2b76:	31 f0       	breq	.+12     	; 0x2b84 <__udivdi3+0x81c>
    2b78:	28 f0       	brcs	.+10     	; 0x2b84 <__udivdi3+0x81c>
    2b7a:	48 e0       	ldi	r20, 0x08	; 8
    2b7c:	50 e0       	ldi	r21, 0x00	; 0
    2b7e:	60 e0       	ldi	r22, 0x00	; 0
    2b80:	70 e0       	ldi	r23, 0x00	; 0
    2b82:	17 c0       	rjmp	.+46     	; 0x2bb2 <__udivdi3+0x84a>
    2b84:	40 e0       	ldi	r20, 0x00	; 0
    2b86:	50 e0       	ldi	r21, 0x00	; 0
    2b88:	60 e0       	ldi	r22, 0x00	; 0
    2b8a:	70 e0       	ldi	r23, 0x00	; 0
    2b8c:	12 c0       	rjmp	.+36     	; 0x2bb2 <__udivdi3+0x84a>
    2b8e:	40 e0       	ldi	r20, 0x00	; 0
    2b90:	e4 16       	cp	r14, r20
    2b92:	40 e0       	ldi	r20, 0x00	; 0
    2b94:	f4 06       	cpc	r15, r20
    2b96:	40 e0       	ldi	r20, 0x00	; 0
    2b98:	04 07       	cpc	r16, r20
    2b9a:	41 e0       	ldi	r20, 0x01	; 1
    2b9c:	14 07       	cpc	r17, r20
    2b9e:	28 f0       	brcs	.+10     	; 0x2baa <__udivdi3+0x842>
    2ba0:	48 e1       	ldi	r20, 0x18	; 24
    2ba2:	50 e0       	ldi	r21, 0x00	; 0
    2ba4:	60 e0       	ldi	r22, 0x00	; 0
    2ba6:	70 e0       	ldi	r23, 0x00	; 0
    2ba8:	04 c0       	rjmp	.+8      	; 0x2bb2 <__udivdi3+0x84a>
    2baa:	40 e1       	ldi	r20, 0x10	; 16
    2bac:	50 e0       	ldi	r21, 0x00	; 0
    2bae:	60 e0       	ldi	r22, 0x00	; 0
    2bb0:	70 e0       	ldi	r23, 0x00	; 0
    2bb2:	d8 01       	movw	r26, r16
    2bb4:	c7 01       	movw	r24, r14
    2bb6:	04 2e       	mov	r0, r20
    2bb8:	04 c0       	rjmp	.+8      	; 0x2bc2 <__udivdi3+0x85a>
    2bba:	b6 95       	lsr	r27
    2bbc:	a7 95       	ror	r26
    2bbe:	97 95       	ror	r25
    2bc0:	87 95       	ror	r24
    2bc2:	0a 94       	dec	r0
    2bc4:	d2 f7       	brpl	.-12     	; 0x2bba <__udivdi3+0x852>
    2bc6:	8c 51       	subi	r24, 0x1C	; 28
    2bc8:	9f 4f       	sbci	r25, 0xFF	; 255
    2bca:	dc 01       	movw	r26, r24
    2bcc:	2c 91       	ld	r18, X
    2bce:	30 e2       	ldi	r19, 0x20	; 32
    2bd0:	a3 2e       	mov	r10, r19
    2bd2:	b1 2c       	mov	r11, r1
    2bd4:	c1 2c       	mov	r12, r1
    2bd6:	d1 2c       	mov	r13, r1
    2bd8:	d6 01       	movw	r26, r12
    2bda:	c5 01       	movw	r24, r10
    2bdc:	84 1b       	sub	r24, r20
    2bde:	95 0b       	sbc	r25, r21
    2be0:	a6 0b       	sbc	r26, r22
    2be2:	b7 0b       	sbc	r27, r23
    2be4:	82 1b       	sub	r24, r18
    2be6:	91 09       	sbc	r25, r1
    2be8:	a1 09       	sbc	r26, r1
    2bea:	b1 09       	sbc	r27, r1
    2bec:	00 97       	sbiw	r24, 0x00	; 0
    2bee:	a1 05       	cpc	r26, r1
    2bf0:	b1 05       	cpc	r27, r1
    2bf2:	89 f4       	brne	.+34     	; 0x2c16 <__udivdi3+0x8ae>
    2bf4:	e6 14       	cp	r14, r6
    2bf6:	f7 04       	cpc	r15, r7
    2bf8:	08 05       	cpc	r16, r8
    2bfa:	19 05       	cpc	r17, r9
    2bfc:	08 f4       	brcc	.+2      	; 0x2c00 <__udivdi3+0x898>
    2bfe:	f2 c1       	rjmp	.+996    	; 0x2fe4 <__udivdi3+0xc7c>
    2c00:	6d a4       	ldd	r6, Y+45	; 0x2d
    2c02:	7e a4       	ldd	r7, Y+46	; 0x2e
    2c04:	8f a4       	ldd	r8, Y+47	; 0x2f
    2c06:	98 a8       	ldd	r9, Y+48	; 0x30
    2c08:	62 14       	cp	r6, r2
    2c0a:	73 04       	cpc	r7, r3
    2c0c:	84 04       	cpc	r8, r4
    2c0e:	95 04       	cpc	r9, r5
    2c10:	08 f0       	brcs	.+2      	; 0x2c14 <__udivdi3+0x8ac>
    2c12:	e8 c1       	rjmp	.+976    	; 0x2fe4 <__udivdi3+0xc7c>
    2c14:	f3 c1       	rjmp	.+998    	; 0x2ffc <__udivdi3+0xc94>
    2c16:	6e 96       	adiw	r28, 0x1e	; 30
    2c18:	8f af       	std	Y+63, r24	; 0x3f
    2c1a:	6e 97       	sbiw	r28, 0x1e	; 30
    2c1c:	08 2e       	mov	r0, r24
    2c1e:	04 c0       	rjmp	.+8      	; 0x2c28 <__udivdi3+0x8c0>
    2c20:	ee 0c       	add	r14, r14
    2c22:	ff 1c       	adc	r15, r15
    2c24:	00 1f       	adc	r16, r16
    2c26:	11 1f       	adc	r17, r17
    2c28:	0a 94       	dec	r0
    2c2a:	d2 f7       	brpl	.-12     	; 0x2c20 <__udivdi3+0x8b8>
    2c2c:	6a 2d       	mov	r22, r10
    2c2e:	68 1b       	sub	r22, r24
    2c30:	d2 01       	movw	r26, r4
    2c32:	c1 01       	movw	r24, r2
    2c34:	06 2e       	mov	r0, r22
    2c36:	04 c0       	rjmp	.+8      	; 0x2c40 <__udivdi3+0x8d8>
    2c38:	b6 95       	lsr	r27
    2c3a:	a7 95       	ror	r26
    2c3c:	97 95       	ror	r25
    2c3e:	87 95       	ror	r24
    2c40:	0a 94       	dec	r0
    2c42:	d2 f7       	brpl	.-12     	; 0x2c38 <__udivdi3+0x8d0>
    2c44:	5c 01       	movw	r10, r24
    2c46:	6d 01       	movw	r12, r26
    2c48:	ae 28       	or	r10, r14
    2c4a:	bf 28       	or	r11, r15
    2c4c:	c0 2a       	or	r12, r16
    2c4e:	d1 2a       	or	r13, r17
    2c50:	ad a2       	std	Y+37, r10	; 0x25
    2c52:	be a2       	std	Y+38, r11	; 0x26
    2c54:	cf a2       	std	Y+39, r12	; 0x27
    2c56:	d8 a6       	std	Y+40, r13	; 0x28
    2c58:	72 01       	movw	r14, r4
    2c5a:	61 01       	movw	r12, r2
    2c5c:	6e 96       	adiw	r28, 0x1e	; 30
    2c5e:	0f ac       	ldd	r0, Y+63	; 0x3f
    2c60:	6e 97       	sbiw	r28, 0x1e	; 30
    2c62:	04 c0       	rjmp	.+8      	; 0x2c6c <__udivdi3+0x904>
    2c64:	cc 0c       	add	r12, r12
    2c66:	dd 1c       	adc	r13, r13
    2c68:	ee 1c       	adc	r14, r14
    2c6a:	ff 1c       	adc	r15, r15
    2c6c:	0a 94       	dec	r0
    2c6e:	d2 f7       	brpl	.-12     	; 0x2c64 <__udivdi3+0x8fc>
    2c70:	c9 a2       	std	Y+33, r12	; 0x21
    2c72:	da a2       	std	Y+34, r13	; 0x22
    2c74:	eb a2       	std	Y+35, r14	; 0x23
    2c76:	fc a2       	std	Y+36, r15	; 0x24
    2c78:	64 01       	movw	r12, r8
    2c7a:	53 01       	movw	r10, r6
    2c7c:	06 2e       	mov	r0, r22
    2c7e:	04 c0       	rjmp	.+8      	; 0x2c88 <__udivdi3+0x920>
    2c80:	d6 94       	lsr	r13
    2c82:	c7 94       	ror	r12
    2c84:	b7 94       	ror	r11
    2c86:	a7 94       	ror	r10
    2c88:	0a 94       	dec	r0
    2c8a:	d2 f7       	brpl	.-12     	; 0x2c80 <__udivdi3+0x918>
    2c8c:	d4 01       	movw	r26, r8
    2c8e:	c3 01       	movw	r24, r6
    2c90:	6e 96       	adiw	r28, 0x1e	; 30
    2c92:	0f ac       	ldd	r0, Y+63	; 0x3f
    2c94:	6e 97       	sbiw	r28, 0x1e	; 30
    2c96:	04 c0       	rjmp	.+8      	; 0x2ca0 <__udivdi3+0x938>
    2c98:	88 0f       	add	r24, r24
    2c9a:	99 1f       	adc	r25, r25
    2c9c:	aa 1f       	adc	r26, r26
    2c9e:	bb 1f       	adc	r27, r27
    2ca0:	0a 94       	dec	r0
    2ca2:	d2 f7       	brpl	.-12     	; 0x2c98 <__udivdi3+0x930>
    2ca4:	ed a4       	ldd	r14, Y+45	; 0x2d
    2ca6:	fe a4       	ldd	r15, Y+46	; 0x2e
    2ca8:	0f a5       	ldd	r16, Y+47	; 0x2f
    2caa:	18 a9       	ldd	r17, Y+48	; 0x30
    2cac:	04 c0       	rjmp	.+8      	; 0x2cb6 <__udivdi3+0x94e>
    2cae:	16 95       	lsr	r17
    2cb0:	07 95       	ror	r16
    2cb2:	f7 94       	ror	r15
    2cb4:	e7 94       	ror	r14
    2cb6:	6a 95       	dec	r22
    2cb8:	d2 f7       	brpl	.-12     	; 0x2cae <__udivdi3+0x946>
    2cba:	37 01       	movw	r6, r14
    2cbc:	48 01       	movw	r8, r16
    2cbe:	68 2a       	or	r6, r24
    2cc0:	79 2a       	or	r7, r25
    2cc2:	8a 2a       	or	r8, r26
    2cc4:	9b 2a       	or	r9, r27
    2cc6:	6d 8e       	std	Y+29, r6	; 0x1d
    2cc8:	7e 8e       	std	Y+30, r7	; 0x1e
    2cca:	8f 8e       	std	Y+31, r8	; 0x1f
    2ccc:	98 a2       	std	Y+32, r9	; 0x20
    2cce:	ed a0       	ldd	r14, Y+37	; 0x25
    2cd0:	fe a0       	ldd	r15, Y+38	; 0x26
    2cd2:	0f a1       	ldd	r16, Y+39	; 0x27
    2cd4:	18 a5       	ldd	r17, Y+40	; 0x28
    2cd6:	38 01       	movw	r6, r16
    2cd8:	88 24       	eor	r8, r8
    2cda:	99 24       	eor	r9, r9
    2cdc:	98 01       	movw	r18, r16
    2cde:	87 01       	movw	r16, r14
    2ce0:	20 70       	andi	r18, 0x00	; 0
    2ce2:	30 70       	andi	r19, 0x00	; 0
    2ce4:	65 96       	adiw	r28, 0x15	; 21
    2ce6:	0c af       	std	Y+60, r16	; 0x3c
    2ce8:	1d af       	std	Y+61, r17	; 0x3d
    2cea:	2e af       	std	Y+62, r18	; 0x3e
    2cec:	3f af       	std	Y+63, r19	; 0x3f
    2cee:	65 97       	sbiw	r28, 0x15	; 21
    2cf0:	c6 01       	movw	r24, r12
    2cf2:	b5 01       	movw	r22, r10
    2cf4:	a4 01       	movw	r20, r8
    2cf6:	93 01       	movw	r18, r6
    2cf8:	0e 94 67 18 	call	0x30ce	; 0x30ce <__udivmodsi4>
    2cfc:	7b 01       	movw	r14, r22
    2cfe:	8c 01       	movw	r16, r24
    2d00:	c6 01       	movw	r24, r12
    2d02:	b5 01       	movw	r22, r10
    2d04:	a4 01       	movw	r20, r8
    2d06:	93 01       	movw	r18, r6
    2d08:	0e 94 67 18 	call	0x30ce	; 0x30ce <__udivmodsi4>
    2d0c:	c9 01       	movw	r24, r18
    2d0e:	da 01       	movw	r26, r20
    2d10:	1c 01       	movw	r2, r24
    2d12:	2d 01       	movw	r4, r26
    2d14:	c2 01       	movw	r24, r4
    2d16:	b1 01       	movw	r22, r2
    2d18:	65 96       	adiw	r28, 0x15	; 21
    2d1a:	2c ad       	ldd	r18, Y+60	; 0x3c
    2d1c:	3d ad       	ldd	r19, Y+61	; 0x3d
    2d1e:	4e ad       	ldd	r20, Y+62	; 0x3e
    2d20:	5f ad       	ldd	r21, Y+63	; 0x3f
    2d22:	65 97       	sbiw	r28, 0x15	; 21
    2d24:	0e 94 29 18 	call	0x3052	; 0x3052 <__mulsi3>
    2d28:	9b 01       	movw	r18, r22
    2d2a:	ac 01       	movw	r20, r24
    2d2c:	87 01       	movw	r16, r14
    2d2e:	ff 24       	eor	r15, r15
    2d30:	ee 24       	eor	r14, r14
    2d32:	ad 8c       	ldd	r10, Y+29	; 0x1d
    2d34:	be 8c       	ldd	r11, Y+30	; 0x1e
    2d36:	cf 8c       	ldd	r12, Y+31	; 0x1f
    2d38:	d8 a0       	ldd	r13, Y+32	; 0x20
    2d3a:	c6 01       	movw	r24, r12
    2d3c:	aa 27       	eor	r26, r26
    2d3e:	bb 27       	eor	r27, r27
    2d40:	57 01       	movw	r10, r14
    2d42:	68 01       	movw	r12, r16
    2d44:	a8 2a       	or	r10, r24
    2d46:	b9 2a       	or	r11, r25
    2d48:	ca 2a       	or	r12, r26
    2d4a:	db 2a       	or	r13, r27
    2d4c:	a2 16       	cp	r10, r18
    2d4e:	b3 06       	cpc	r11, r19
    2d50:	c4 06       	cpc	r12, r20
    2d52:	d5 06       	cpc	r13, r21
    2d54:	00 f5       	brcc	.+64     	; 0x2d96 <__udivdi3+0xa2e>
    2d56:	08 94       	sec
    2d58:	21 08       	sbc	r2, r1
    2d5a:	31 08       	sbc	r3, r1
    2d5c:	41 08       	sbc	r4, r1
    2d5e:	51 08       	sbc	r5, r1
    2d60:	ed a0       	ldd	r14, Y+37	; 0x25
    2d62:	fe a0       	ldd	r15, Y+38	; 0x26
    2d64:	0f a1       	ldd	r16, Y+39	; 0x27
    2d66:	18 a5       	ldd	r17, Y+40	; 0x28
    2d68:	ae 0c       	add	r10, r14
    2d6a:	bf 1c       	adc	r11, r15
    2d6c:	c0 1e       	adc	r12, r16
    2d6e:	d1 1e       	adc	r13, r17
    2d70:	ae 14       	cp	r10, r14
    2d72:	bf 04       	cpc	r11, r15
    2d74:	c0 06       	cpc	r12, r16
    2d76:	d1 06       	cpc	r13, r17
    2d78:	70 f0       	brcs	.+28     	; 0x2d96 <__udivdi3+0xa2e>
    2d7a:	a2 16       	cp	r10, r18
    2d7c:	b3 06       	cpc	r11, r19
    2d7e:	c4 06       	cpc	r12, r20
    2d80:	d5 06       	cpc	r13, r21
    2d82:	48 f4       	brcc	.+18     	; 0x2d96 <__udivdi3+0xa2e>
    2d84:	08 94       	sec
    2d86:	21 08       	sbc	r2, r1
    2d88:	31 08       	sbc	r3, r1
    2d8a:	41 08       	sbc	r4, r1
    2d8c:	51 08       	sbc	r5, r1
    2d8e:	ae 0c       	add	r10, r14
    2d90:	bf 1c       	adc	r11, r15
    2d92:	c0 1e       	adc	r12, r16
    2d94:	d1 1e       	adc	r13, r17
    2d96:	a2 1a       	sub	r10, r18
    2d98:	b3 0a       	sbc	r11, r19
    2d9a:	c4 0a       	sbc	r12, r20
    2d9c:	d5 0a       	sbc	r13, r21
    2d9e:	c6 01       	movw	r24, r12
    2da0:	b5 01       	movw	r22, r10
    2da2:	a4 01       	movw	r20, r8
    2da4:	93 01       	movw	r18, r6
    2da6:	0e 94 67 18 	call	0x30ce	; 0x30ce <__udivmodsi4>
    2daa:	7b 01       	movw	r14, r22
    2dac:	8c 01       	movw	r16, r24
    2dae:	c6 01       	movw	r24, r12
    2db0:	b5 01       	movw	r22, r10
    2db2:	a4 01       	movw	r20, r8
    2db4:	93 01       	movw	r18, r6
    2db6:	0e 94 67 18 	call	0x30ce	; 0x30ce <__udivmodsi4>
    2dba:	c9 01       	movw	r24, r18
    2dbc:	da 01       	movw	r26, r20
    2dbe:	3c 01       	movw	r6, r24
    2dc0:	4d 01       	movw	r8, r26
    2dc2:	c4 01       	movw	r24, r8
    2dc4:	b3 01       	movw	r22, r6
    2dc6:	65 96       	adiw	r28, 0x15	; 21
    2dc8:	2c ad       	ldd	r18, Y+60	; 0x3c
    2dca:	3d ad       	ldd	r19, Y+61	; 0x3d
    2dcc:	4e ad       	ldd	r20, Y+62	; 0x3e
    2dce:	5f ad       	ldd	r21, Y+63	; 0x3f
    2dd0:	65 97       	sbiw	r28, 0x15	; 21
    2dd2:	0e 94 29 18 	call	0x3052	; 0x3052 <__mulsi3>
    2dd6:	9b 01       	movw	r18, r22
    2dd8:	ac 01       	movw	r20, r24
    2dda:	87 01       	movw	r16, r14
    2ddc:	ff 24       	eor	r15, r15
    2dde:	ee 24       	eor	r14, r14
    2de0:	8d 8d       	ldd	r24, Y+29	; 0x1d
    2de2:	9e 8d       	ldd	r25, Y+30	; 0x1e
    2de4:	af 8d       	ldd	r26, Y+31	; 0x1f
    2de6:	b8 a1       	ldd	r27, Y+32	; 0x20
    2de8:	a0 70       	andi	r26, 0x00	; 0
    2dea:	b0 70       	andi	r27, 0x00	; 0
    2dec:	57 01       	movw	r10, r14
    2dee:	68 01       	movw	r12, r16
    2df0:	a8 2a       	or	r10, r24
    2df2:	b9 2a       	or	r11, r25
    2df4:	ca 2a       	or	r12, r26
    2df6:	db 2a       	or	r13, r27
    2df8:	a2 16       	cp	r10, r18
    2dfa:	b3 06       	cpc	r11, r19
    2dfc:	c4 06       	cpc	r12, r20
    2dfe:	d5 06       	cpc	r13, r21
    2e00:	00 f5       	brcc	.+64     	; 0x2e42 <__udivdi3+0xada>
    2e02:	08 94       	sec
    2e04:	61 08       	sbc	r6, r1
    2e06:	71 08       	sbc	r7, r1
    2e08:	81 08       	sbc	r8, r1
    2e0a:	91 08       	sbc	r9, r1
    2e0c:	6d a1       	ldd	r22, Y+37	; 0x25
    2e0e:	7e a1       	ldd	r23, Y+38	; 0x26
    2e10:	8f a1       	ldd	r24, Y+39	; 0x27
    2e12:	98 a5       	ldd	r25, Y+40	; 0x28
    2e14:	a6 0e       	add	r10, r22
    2e16:	b7 1e       	adc	r11, r23
    2e18:	c8 1e       	adc	r12, r24
    2e1a:	d9 1e       	adc	r13, r25
    2e1c:	a6 16       	cp	r10, r22
    2e1e:	b7 06       	cpc	r11, r23
    2e20:	c8 06       	cpc	r12, r24
    2e22:	d9 06       	cpc	r13, r25
    2e24:	70 f0       	brcs	.+28     	; 0x2e42 <__udivdi3+0xada>
    2e26:	a2 16       	cp	r10, r18
    2e28:	b3 06       	cpc	r11, r19
    2e2a:	c4 06       	cpc	r12, r20
    2e2c:	d5 06       	cpc	r13, r21
    2e2e:	48 f4       	brcc	.+18     	; 0x2e42 <__udivdi3+0xada>
    2e30:	08 94       	sec
    2e32:	61 08       	sbc	r6, r1
    2e34:	71 08       	sbc	r7, r1
    2e36:	81 08       	sbc	r8, r1
    2e38:	91 08       	sbc	r9, r1
    2e3a:	a6 0e       	add	r10, r22
    2e3c:	b7 1e       	adc	r11, r23
    2e3e:	c8 1e       	adc	r12, r24
    2e40:	d9 1e       	adc	r13, r25
    2e42:	d6 01       	movw	r26, r12
    2e44:	c5 01       	movw	r24, r10
    2e46:	82 1b       	sub	r24, r18
    2e48:	93 0b       	sbc	r25, r19
    2e4a:	a4 0b       	sbc	r26, r20
    2e4c:	b5 0b       	sbc	r27, r21
    2e4e:	89 8f       	std	Y+25, r24	; 0x19
    2e50:	9a 8f       	std	Y+26, r25	; 0x1a
    2e52:	ab 8f       	std	Y+27, r26	; 0x1b
    2e54:	bc 8f       	std	Y+28, r27	; 0x1c
    2e56:	d1 01       	movw	r26, r2
    2e58:	99 27       	eor	r25, r25
    2e5a:	88 27       	eor	r24, r24
    2e5c:	64 01       	movw	r12, r8
    2e5e:	53 01       	movw	r10, r6
    2e60:	a8 2a       	or	r10, r24
    2e62:	b9 2a       	or	r11, r25
    2e64:	ca 2a       	or	r12, r26
    2e66:	db 2a       	or	r13, r27
    2e68:	a9 aa       	std	Y+49, r10	; 0x31
    2e6a:	ba aa       	std	Y+50, r11	; 0x32
    2e6c:	cb aa       	std	Y+51, r12	; 0x33
    2e6e:	dc aa       	std	Y+52, r13	; 0x34
    2e70:	86 01       	movw	r16, r12
    2e72:	75 01       	movw	r14, r10
    2e74:	2f ef       	ldi	r18, 0xFF	; 255
    2e76:	3f ef       	ldi	r19, 0xFF	; 255
    2e78:	40 e0       	ldi	r20, 0x00	; 0
    2e7a:	50 e0       	ldi	r21, 0x00	; 0
    2e7c:	e2 22       	and	r14, r18
    2e7e:	f3 22       	and	r15, r19
    2e80:	04 23       	and	r16, r20
    2e82:	15 23       	and	r17, r21
    2e84:	a6 01       	movw	r20, r12
    2e86:	66 27       	eor	r22, r22
    2e88:	77 27       	eor	r23, r23
    2e8a:	6d 96       	adiw	r28, 0x1d	; 29
    2e8c:	4c af       	std	Y+60, r20	; 0x3c
    2e8e:	5d af       	std	Y+61, r21	; 0x3d
    2e90:	6e af       	std	Y+62, r22	; 0x3e
    2e92:	7f af       	std	Y+63, r23	; 0x3f
    2e94:	6d 97       	sbiw	r28, 0x1d	; 29
    2e96:	a9 a0       	ldd	r10, Y+33	; 0x21
    2e98:	ba a0       	ldd	r11, Y+34	; 0x22
    2e9a:	cb a0       	ldd	r12, Y+35	; 0x23
    2e9c:	dc a0       	ldd	r13, Y+36	; 0x24
    2e9e:	6f ef       	ldi	r22, 0xFF	; 255
    2ea0:	7f ef       	ldi	r23, 0xFF	; 255
    2ea2:	80 e0       	ldi	r24, 0x00	; 0
    2ea4:	90 e0       	ldi	r25, 0x00	; 0
    2ea6:	a6 22       	and	r10, r22
    2ea8:	b7 22       	and	r11, r23
    2eaa:	c8 22       	and	r12, r24
    2eac:	d9 22       	and	r13, r25
    2eae:	89 a1       	ldd	r24, Y+33	; 0x21
    2eb0:	9a a1       	ldd	r25, Y+34	; 0x22
    2eb2:	ab a1       	ldd	r26, Y+35	; 0x23
    2eb4:	bc a1       	ldd	r27, Y+36	; 0x24
    2eb6:	1d 01       	movw	r2, r26
    2eb8:	44 24       	eor	r4, r4
    2eba:	55 24       	eor	r5, r5
    2ebc:	c8 01       	movw	r24, r16
    2ebe:	b7 01       	movw	r22, r14
    2ec0:	a6 01       	movw	r20, r12
    2ec2:	95 01       	movw	r18, r10
    2ec4:	0e 94 29 18 	call	0x3052	; 0x3052 <__mulsi3>
    2ec8:	69 96       	adiw	r28, 0x19	; 25
    2eca:	6c af       	std	Y+60, r22	; 0x3c
    2ecc:	7d af       	std	Y+61, r23	; 0x3d
    2ece:	8e af       	std	Y+62, r24	; 0x3e
    2ed0:	9f af       	std	Y+63, r25	; 0x3f
    2ed2:	69 97       	sbiw	r28, 0x19	; 25
    2ed4:	c8 01       	movw	r24, r16
    2ed6:	b7 01       	movw	r22, r14
    2ed8:	a2 01       	movw	r20, r4
    2eda:	91 01       	movw	r18, r2
    2edc:	0e 94 29 18 	call	0x3052	; 0x3052 <__mulsi3>
    2ee0:	3b 01       	movw	r6, r22
    2ee2:	4c 01       	movw	r8, r24
    2ee4:	6d 96       	adiw	r28, 0x1d	; 29
    2ee6:	6c ad       	ldd	r22, Y+60	; 0x3c
    2ee8:	7d ad       	ldd	r23, Y+61	; 0x3d
    2eea:	8e ad       	ldd	r24, Y+62	; 0x3e
    2eec:	9f ad       	ldd	r25, Y+63	; 0x3f
    2eee:	6d 97       	sbiw	r28, 0x1d	; 29
    2ef0:	a6 01       	movw	r20, r12
    2ef2:	95 01       	movw	r18, r10
    2ef4:	0e 94 29 18 	call	0x3052	; 0x3052 <__mulsi3>
    2ef8:	7b 01       	movw	r14, r22
    2efa:	8c 01       	movw	r16, r24
    2efc:	6d 96       	adiw	r28, 0x1d	; 29
    2efe:	6c ad       	ldd	r22, Y+60	; 0x3c
    2f00:	7d ad       	ldd	r23, Y+61	; 0x3d
    2f02:	8e ad       	ldd	r24, Y+62	; 0x3e
    2f04:	9f ad       	ldd	r25, Y+63	; 0x3f
    2f06:	6d 97       	sbiw	r28, 0x1d	; 29
    2f08:	a2 01       	movw	r20, r4
    2f0a:	91 01       	movw	r18, r2
    2f0c:	0e 94 29 18 	call	0x3052	; 0x3052 <__mulsi3>
    2f10:	5b 01       	movw	r10, r22
    2f12:	6c 01       	movw	r12, r24
    2f14:	a8 01       	movw	r20, r16
    2f16:	97 01       	movw	r18, r14
    2f18:	26 0d       	add	r18, r6
    2f1a:	37 1d       	adc	r19, r7
    2f1c:	48 1d       	adc	r20, r8
    2f1e:	59 1d       	adc	r21, r9
    2f20:	69 96       	adiw	r28, 0x19	; 25
    2f22:	6c ac       	ldd	r6, Y+60	; 0x3c
    2f24:	7d ac       	ldd	r7, Y+61	; 0x3d
    2f26:	8e ac       	ldd	r8, Y+62	; 0x3e
    2f28:	9f ac       	ldd	r9, Y+63	; 0x3f
    2f2a:	69 97       	sbiw	r28, 0x19	; 25
    2f2c:	c4 01       	movw	r24, r8
    2f2e:	aa 27       	eor	r26, r26
    2f30:	bb 27       	eor	r27, r27
    2f32:	28 0f       	add	r18, r24
    2f34:	39 1f       	adc	r19, r25
    2f36:	4a 1f       	adc	r20, r26
    2f38:	5b 1f       	adc	r21, r27
    2f3a:	2e 15       	cp	r18, r14
    2f3c:	3f 05       	cpc	r19, r15
    2f3e:	40 07       	cpc	r20, r16
    2f40:	51 07       	cpc	r21, r17
    2f42:	48 f4       	brcc	.+18     	; 0x2f56 <__udivdi3+0xbee>
    2f44:	e1 2c       	mov	r14, r1
    2f46:	f1 2c       	mov	r15, r1
    2f48:	61 e0       	ldi	r22, 0x01	; 1
    2f4a:	06 2f       	mov	r16, r22
    2f4c:	11 2d       	mov	r17, r1
    2f4e:	ae 0c       	add	r10, r14
    2f50:	bf 1c       	adc	r11, r15
    2f52:	c0 1e       	adc	r12, r16
    2f54:	d1 1e       	adc	r13, r17
    2f56:	ca 01       	movw	r24, r20
    2f58:	aa 27       	eor	r26, r26
    2f5a:	bb 27       	eor	r27, r27
    2f5c:	bc 01       	movw	r22, r24
    2f5e:	cd 01       	movw	r24, r26
    2f60:	6a 0d       	add	r22, r10
    2f62:	7b 1d       	adc	r23, r11
    2f64:	8c 1d       	adc	r24, r12
    2f66:	9d 1d       	adc	r25, r13
    2f68:	69 8c       	ldd	r6, Y+25	; 0x19
    2f6a:	7a 8c       	ldd	r7, Y+26	; 0x1a
    2f6c:	8b 8c       	ldd	r8, Y+27	; 0x1b
    2f6e:	9c 8c       	ldd	r9, Y+28	; 0x1c
    2f70:	66 16       	cp	r6, r22
    2f72:	77 06       	cpc	r7, r23
    2f74:	88 06       	cpc	r8, r24
    2f76:	99 06       	cpc	r9, r25
    2f78:	40 f1       	brcs	.+80     	; 0x2fca <__udivdi3+0xc62>
    2f7a:	66 15       	cp	r22, r6
    2f7c:	77 05       	cpc	r23, r7
    2f7e:	88 05       	cpc	r24, r8
    2f80:	99 05       	cpc	r25, r9
    2f82:	09 f0       	breq	.+2      	; 0x2f86 <__udivdi3+0xc1e>
    2f84:	43 c0       	rjmp	.+134    	; 0x300c <__udivdi3+0xca4>
    2f86:	d9 01       	movw	r26, r18
    2f88:	99 27       	eor	r25, r25
    2f8a:	88 27       	eor	r24, r24
    2f8c:	69 96       	adiw	r28, 0x19	; 25
    2f8e:	2c ad       	ldd	r18, Y+60	; 0x3c
    2f90:	3d ad       	ldd	r19, Y+61	; 0x3d
    2f92:	4e ad       	ldd	r20, Y+62	; 0x3e
    2f94:	5f ad       	ldd	r21, Y+63	; 0x3f
    2f96:	69 97       	sbiw	r28, 0x19	; 25
    2f98:	40 70       	andi	r20, 0x00	; 0
    2f9a:	50 70       	andi	r21, 0x00	; 0
    2f9c:	82 0f       	add	r24, r18
    2f9e:	93 1f       	adc	r25, r19
    2fa0:	a4 1f       	adc	r26, r20
    2fa2:	b5 1f       	adc	r27, r21
    2fa4:	2d a5       	ldd	r18, Y+45	; 0x2d
    2fa6:	3e a5       	ldd	r19, Y+46	; 0x2e
    2fa8:	4f a5       	ldd	r20, Y+47	; 0x2f
    2faa:	58 a9       	ldd	r21, Y+48	; 0x30
    2fac:	6e 96       	adiw	r28, 0x1e	; 30
    2fae:	0f ac       	ldd	r0, Y+63	; 0x3f
    2fb0:	6e 97       	sbiw	r28, 0x1e	; 30
    2fb2:	04 c0       	rjmp	.+8      	; 0x2fbc <__udivdi3+0xc54>
    2fb4:	22 0f       	add	r18, r18
    2fb6:	33 1f       	adc	r19, r19
    2fb8:	44 1f       	adc	r20, r20
    2fba:	55 1f       	adc	r21, r21
    2fbc:	0a 94       	dec	r0
    2fbe:	d2 f7       	brpl	.-12     	; 0x2fb4 <__udivdi3+0xc4c>
    2fc0:	28 17       	cp	r18, r24
    2fc2:	39 07       	cpc	r19, r25
    2fc4:	4a 07       	cpc	r20, r26
    2fc6:	5b 07       	cpc	r21, r27
    2fc8:	08 f5       	brcc	.+66     	; 0x300c <__udivdi3+0xca4>
    2fca:	09 a9       	ldd	r16, Y+49	; 0x31
    2fcc:	1a a9       	ldd	r17, Y+50	; 0x32
    2fce:	2b a9       	ldd	r18, Y+51	; 0x33
    2fd0:	3c a9       	ldd	r19, Y+52	; 0x34
    2fd2:	01 50       	subi	r16, 0x01	; 1
    2fd4:	10 40       	sbci	r17, 0x00	; 0
    2fd6:	20 40       	sbci	r18, 0x00	; 0
    2fd8:	30 40       	sbci	r19, 0x00	; 0
    2fda:	09 ab       	std	Y+49, r16	; 0x31
    2fdc:	1a ab       	std	Y+50, r17	; 0x32
    2fde:	2b ab       	std	Y+51, r18	; 0x33
    2fe0:	3c ab       	std	Y+52, r19	; 0x34
    2fe2:	14 c0       	rjmp	.+40     	; 0x300c <__udivdi3+0xca4>
    2fe4:	66 24       	eor	r6, r6
    2fe6:	77 24       	eor	r7, r7
    2fe8:	43 01       	movw	r8, r6
    2fea:	21 e0       	ldi	r18, 0x01	; 1
    2fec:	30 e0       	ldi	r19, 0x00	; 0
    2fee:	40 e0       	ldi	r20, 0x00	; 0
    2ff0:	50 e0       	ldi	r21, 0x00	; 0
    2ff2:	29 ab       	std	Y+49, r18	; 0x31
    2ff4:	3a ab       	std	Y+50, r19	; 0x32
    2ff6:	4b ab       	std	Y+51, r20	; 0x33
    2ff8:	5c ab       	std	Y+52, r21	; 0x34
    2ffa:	0b c0       	rjmp	.+22     	; 0x3012 <__udivdi3+0xcaa>
    2ffc:	66 24       	eor	r6, r6
    2ffe:	77 24       	eor	r7, r7
    3000:	43 01       	movw	r8, r6
    3002:	19 aa       	std	Y+49, r1	; 0x31
    3004:	1a aa       	std	Y+50, r1	; 0x32
    3006:	1b aa       	std	Y+51, r1	; 0x33
    3008:	1c aa       	std	Y+52, r1	; 0x34
    300a:	03 c0       	rjmp	.+6      	; 0x3012 <__udivdi3+0xcaa>
    300c:	66 24       	eor	r6, r6
    300e:	77 24       	eor	r7, r7
    3010:	43 01       	movw	r8, r6
    3012:	fe 01       	movw	r30, r28
    3014:	71 96       	adiw	r30, 0x11	; 17
    3016:	88 e0       	ldi	r24, 0x08	; 8
    3018:	df 01       	movw	r26, r30
    301a:	1d 92       	st	X+, r1
    301c:	8a 95       	dec	r24
    301e:	e9 f7       	brne	.-6      	; 0x301a <__udivdi3+0xcb2>
    3020:	a9 a8       	ldd	r10, Y+49	; 0x31
    3022:	ba a8       	ldd	r11, Y+50	; 0x32
    3024:	cb a8       	ldd	r12, Y+51	; 0x33
    3026:	dc a8       	ldd	r13, Y+52	; 0x34
    3028:	a9 8a       	std	Y+17, r10	; 0x11
    302a:	ba 8a       	std	Y+18, r11	; 0x12
    302c:	cb 8a       	std	Y+19, r12	; 0x13
    302e:	dc 8a       	std	Y+20, r13	; 0x14
    3030:	6d 8a       	std	Y+21, r6	; 0x15
    3032:	7e 8a       	std	Y+22, r7	; 0x16
    3034:	8f 8a       	std	Y+23, r8	; 0x17
    3036:	98 8e       	std	Y+24, r9	; 0x18
    3038:	29 a9       	ldd	r18, Y+49	; 0x31
    303a:	3a 89       	ldd	r19, Y+18	; 0x12
    303c:	4b 89       	ldd	r20, Y+19	; 0x13
    303e:	5c 89       	ldd	r21, Y+20	; 0x14
    3040:	66 2d       	mov	r22, r6
    3042:	7e 89       	ldd	r23, Y+22	; 0x16
    3044:	8f 89       	ldd	r24, Y+23	; 0x17
    3046:	98 8d       	ldd	r25, Y+24	; 0x18
    3048:	c2 5a       	subi	r28, 0xA2	; 162
    304a:	df 4f       	sbci	r29, 0xFF	; 255
    304c:	e2 e1       	ldi	r30, 0x12	; 18
    304e:	0c 94 b9 18 	jmp	0x3172	; 0x3172 <__epilogue_restores__>

00003052 <__mulsi3>:
    3052:	62 9f       	mul	r22, r18
    3054:	d0 01       	movw	r26, r0
    3056:	73 9f       	mul	r23, r19
    3058:	f0 01       	movw	r30, r0
    305a:	82 9f       	mul	r24, r18
    305c:	e0 0d       	add	r30, r0
    305e:	f1 1d       	adc	r31, r1
    3060:	64 9f       	mul	r22, r20
    3062:	e0 0d       	add	r30, r0
    3064:	f1 1d       	adc	r31, r1
    3066:	92 9f       	mul	r25, r18
    3068:	f0 0d       	add	r31, r0
    306a:	83 9f       	mul	r24, r19
    306c:	f0 0d       	add	r31, r0
    306e:	74 9f       	mul	r23, r20
    3070:	f0 0d       	add	r31, r0
    3072:	65 9f       	mul	r22, r21
    3074:	f0 0d       	add	r31, r0
    3076:	99 27       	eor	r25, r25
    3078:	72 9f       	mul	r23, r18
    307a:	b0 0d       	add	r27, r0
    307c:	e1 1d       	adc	r30, r1
    307e:	f9 1f       	adc	r31, r25
    3080:	63 9f       	mul	r22, r19
    3082:	b0 0d       	add	r27, r0
    3084:	e1 1d       	adc	r30, r1
    3086:	f9 1f       	adc	r31, r25
    3088:	bd 01       	movw	r22, r26
    308a:	cf 01       	movw	r24, r30
    308c:	11 24       	eor	r1, r1
    308e:	08 95       	ret

00003090 <__udivmodqi4>:
    3090:	99 1b       	sub	r25, r25
    3092:	79 e0       	ldi	r23, 0x09	; 9
    3094:	04 c0       	rjmp	.+8      	; 0x309e <__udivmodqi4_ep>

00003096 <__udivmodqi4_loop>:
    3096:	99 1f       	adc	r25, r25
    3098:	96 17       	cp	r25, r22
    309a:	08 f0       	brcs	.+2      	; 0x309e <__udivmodqi4_ep>
    309c:	96 1b       	sub	r25, r22

0000309e <__udivmodqi4_ep>:
    309e:	88 1f       	adc	r24, r24
    30a0:	7a 95       	dec	r23
    30a2:	c9 f7       	brne	.-14     	; 0x3096 <__udivmodqi4_loop>
    30a4:	80 95       	com	r24
    30a6:	08 95       	ret

000030a8 <__divmodhi4>:
    30a8:	97 fb       	bst	r25, 7
    30aa:	09 2e       	mov	r0, r25
    30ac:	07 26       	eor	r0, r23
    30ae:	0a d0       	rcall	.+20     	; 0x30c4 <__divmodhi4_neg1>
    30b0:	77 fd       	sbrc	r23, 7
    30b2:	04 d0       	rcall	.+8      	; 0x30bc <__divmodhi4_neg2>
    30b4:	2e d0       	rcall	.+92     	; 0x3112 <__udivmodhi4>
    30b6:	06 d0       	rcall	.+12     	; 0x30c4 <__divmodhi4_neg1>
    30b8:	00 20       	and	r0, r0
    30ba:	1a f4       	brpl	.+6      	; 0x30c2 <__divmodhi4_exit>

000030bc <__divmodhi4_neg2>:
    30bc:	70 95       	com	r23
    30be:	61 95       	neg	r22
    30c0:	7f 4f       	sbci	r23, 0xFF	; 255

000030c2 <__divmodhi4_exit>:
    30c2:	08 95       	ret

000030c4 <__divmodhi4_neg1>:
    30c4:	f6 f7       	brtc	.-4      	; 0x30c2 <__divmodhi4_exit>
    30c6:	90 95       	com	r25
    30c8:	81 95       	neg	r24
    30ca:	9f 4f       	sbci	r25, 0xFF	; 255
    30cc:	08 95       	ret

000030ce <__udivmodsi4>:
    30ce:	a1 e2       	ldi	r26, 0x21	; 33
    30d0:	1a 2e       	mov	r1, r26
    30d2:	aa 1b       	sub	r26, r26
    30d4:	bb 1b       	sub	r27, r27
    30d6:	fd 01       	movw	r30, r26
    30d8:	0d c0       	rjmp	.+26     	; 0x30f4 <__udivmodsi4_ep>

000030da <__udivmodsi4_loop>:
    30da:	aa 1f       	adc	r26, r26
    30dc:	bb 1f       	adc	r27, r27
    30de:	ee 1f       	adc	r30, r30
    30e0:	ff 1f       	adc	r31, r31
    30e2:	a2 17       	cp	r26, r18
    30e4:	b3 07       	cpc	r27, r19
    30e6:	e4 07       	cpc	r30, r20
    30e8:	f5 07       	cpc	r31, r21
    30ea:	20 f0       	brcs	.+8      	; 0x30f4 <__udivmodsi4_ep>
    30ec:	a2 1b       	sub	r26, r18
    30ee:	b3 0b       	sbc	r27, r19
    30f0:	e4 0b       	sbc	r30, r20
    30f2:	f5 0b       	sbc	r31, r21

000030f4 <__udivmodsi4_ep>:
    30f4:	66 1f       	adc	r22, r22
    30f6:	77 1f       	adc	r23, r23
    30f8:	88 1f       	adc	r24, r24
    30fa:	99 1f       	adc	r25, r25
    30fc:	1a 94       	dec	r1
    30fe:	69 f7       	brne	.-38     	; 0x30da <__udivmodsi4_loop>
    3100:	60 95       	com	r22
    3102:	70 95       	com	r23
    3104:	80 95       	com	r24
    3106:	90 95       	com	r25
    3108:	9b 01       	movw	r18, r22
    310a:	ac 01       	movw	r20, r24
    310c:	bd 01       	movw	r22, r26
    310e:	cf 01       	movw	r24, r30
    3110:	08 95       	ret

00003112 <__udivmodhi4>:
    3112:	aa 1b       	sub	r26, r26
    3114:	bb 1b       	sub	r27, r27
    3116:	51 e1       	ldi	r21, 0x11	; 17
    3118:	07 c0       	rjmp	.+14     	; 0x3128 <__udivmodhi4_ep>

0000311a <__udivmodhi4_loop>:
    311a:	aa 1f       	adc	r26, r26
    311c:	bb 1f       	adc	r27, r27
    311e:	a6 17       	cp	r26, r22
    3120:	b7 07       	cpc	r27, r23
    3122:	10 f0       	brcs	.+4      	; 0x3128 <__udivmodhi4_ep>
    3124:	a6 1b       	sub	r26, r22
    3126:	b7 0b       	sbc	r27, r23

00003128 <__udivmodhi4_ep>:
    3128:	88 1f       	adc	r24, r24
    312a:	99 1f       	adc	r25, r25
    312c:	5a 95       	dec	r21
    312e:	a9 f7       	brne	.-22     	; 0x311a <__udivmodhi4_loop>
    3130:	80 95       	com	r24
    3132:	90 95       	com	r25
    3134:	bc 01       	movw	r22, r24
    3136:	cd 01       	movw	r24, r26
    3138:	08 95       	ret

0000313a <__prologue_saves__>:
    313a:	2f 92       	push	r2
    313c:	3f 92       	push	r3
    313e:	4f 92       	push	r4
    3140:	5f 92       	push	r5
    3142:	6f 92       	push	r6
    3144:	7f 92       	push	r7
    3146:	8f 92       	push	r8
    3148:	9f 92       	push	r9
    314a:	af 92       	push	r10
    314c:	bf 92       	push	r11
    314e:	cf 92       	push	r12
    3150:	df 92       	push	r13
    3152:	ef 92       	push	r14
    3154:	ff 92       	push	r15
    3156:	0f 93       	push	r16
    3158:	1f 93       	push	r17
    315a:	cf 93       	push	r28
    315c:	df 93       	push	r29
    315e:	cd b7       	in	r28, 0x3d	; 61
    3160:	de b7       	in	r29, 0x3e	; 62
    3162:	ca 1b       	sub	r28, r26
    3164:	db 0b       	sbc	r29, r27
    3166:	0f b6       	in	r0, 0x3f	; 63
    3168:	f8 94       	cli
    316a:	de bf       	out	0x3e, r29	; 62
    316c:	0f be       	out	0x3f, r0	; 63
    316e:	cd bf       	out	0x3d, r28	; 61
    3170:	09 94       	ijmp

00003172 <__epilogue_restores__>:
    3172:	2a 88       	ldd	r2, Y+18	; 0x12
    3174:	39 88       	ldd	r3, Y+17	; 0x11
    3176:	48 88       	ldd	r4, Y+16	; 0x10
    3178:	5f 84       	ldd	r5, Y+15	; 0x0f
    317a:	6e 84       	ldd	r6, Y+14	; 0x0e
    317c:	7d 84       	ldd	r7, Y+13	; 0x0d
    317e:	8c 84       	ldd	r8, Y+12	; 0x0c
    3180:	9b 84       	ldd	r9, Y+11	; 0x0b
    3182:	aa 84       	ldd	r10, Y+10	; 0x0a
    3184:	b9 84       	ldd	r11, Y+9	; 0x09
    3186:	c8 84       	ldd	r12, Y+8	; 0x08
    3188:	df 80       	ldd	r13, Y+7	; 0x07
    318a:	ee 80       	ldd	r14, Y+6	; 0x06
    318c:	fd 80       	ldd	r15, Y+5	; 0x05
    318e:	0c 81       	ldd	r16, Y+4	; 0x04
    3190:	1b 81       	ldd	r17, Y+3	; 0x03
    3192:	aa 81       	ldd	r26, Y+2	; 0x02
    3194:	b9 81       	ldd	r27, Y+1	; 0x01
    3196:	ce 0f       	add	r28, r30
    3198:	d1 1d       	adc	r29, r1
    319a:	0f b6       	in	r0, 0x3f	; 63
    319c:	f8 94       	cli
    319e:	de bf       	out	0x3e, r29	; 62
    31a0:	0f be       	out	0x3f, r0	; 63
    31a2:	cd bf       	out	0x3d, r28	; 61
    31a4:	ed 01       	movw	r28, r26
    31a6:	08 95       	ret

000031a8 <sprintf>:
    31a8:	ae e0       	ldi	r26, 0x0E	; 14
    31aa:	b0 e0       	ldi	r27, 0x00	; 0
    31ac:	ea ed       	ldi	r30, 0xDA	; 218
    31ae:	f8 e1       	ldi	r31, 0x18	; 24
    31b0:	0c 94 ab 18 	jmp	0x3156	; 0x3156 <__prologue_saves__+0x1c>
    31b4:	0d 89       	ldd	r16, Y+21	; 0x15
    31b6:	1e 89       	ldd	r17, Y+22	; 0x16
    31b8:	86 e0       	ldi	r24, 0x06	; 6
    31ba:	8c 83       	std	Y+4, r24	; 0x04
    31bc:	1a 83       	std	Y+2, r17	; 0x02
    31be:	09 83       	std	Y+1, r16	; 0x01
    31c0:	8f ef       	ldi	r24, 0xFF	; 255
    31c2:	9f e7       	ldi	r25, 0x7F	; 127
    31c4:	9e 83       	std	Y+6, r25	; 0x06
    31c6:	8d 83       	std	Y+5, r24	; 0x05
    31c8:	9e 01       	movw	r18, r28
    31ca:	27 5e       	subi	r18, 0xE7	; 231
    31cc:	3f 4f       	sbci	r19, 0xFF	; 255
    31ce:	ce 01       	movw	r24, r28
    31d0:	01 96       	adiw	r24, 0x01	; 1
    31d2:	6f 89       	ldd	r22, Y+23	; 0x17
    31d4:	78 8d       	ldd	r23, Y+24	; 0x18
    31d6:	a9 01       	movw	r20, r18
    31d8:	0e 94 f8 18 	call	0x31f0	; 0x31f0 <vfprintf>
    31dc:	2f 81       	ldd	r18, Y+7	; 0x07
    31de:	38 85       	ldd	r19, Y+8	; 0x08
    31e0:	02 0f       	add	r16, r18
    31e2:	13 1f       	adc	r17, r19
    31e4:	f8 01       	movw	r30, r16
    31e6:	10 82       	st	Z, r1
    31e8:	2e 96       	adiw	r28, 0x0e	; 14
    31ea:	e4 e0       	ldi	r30, 0x04	; 4
    31ec:	0c 94 c7 18 	jmp	0x318e	; 0x318e <__epilogue_restores__+0x1c>

000031f0 <vfprintf>:
    31f0:	ab e0       	ldi	r26, 0x0B	; 11
    31f2:	b0 e0       	ldi	r27, 0x00	; 0
    31f4:	ee ef       	ldi	r30, 0xFE	; 254
    31f6:	f8 e1       	ldi	r31, 0x18	; 24
    31f8:	0c 94 9d 18 	jmp	0x313a	; 0x313a <__prologue_saves__>
    31fc:	3c 01       	movw	r6, r24
    31fe:	2b 01       	movw	r4, r22
    3200:	5a 01       	movw	r10, r20
    3202:	fc 01       	movw	r30, r24
    3204:	17 82       	std	Z+7, r1	; 0x07
    3206:	16 82       	std	Z+6, r1	; 0x06
    3208:	83 81       	ldd	r24, Z+3	; 0x03
    320a:	81 fd       	sbrc	r24, 1
    320c:	03 c0       	rjmp	.+6      	; 0x3214 <vfprintf+0x24>
    320e:	6f ef       	ldi	r22, 0xFF	; 255
    3210:	7f ef       	ldi	r23, 0xFF	; 255
    3212:	c6 c1       	rjmp	.+908    	; 0x35a0 <vfprintf+0x3b0>
    3214:	9a e0       	ldi	r25, 0x0A	; 10
    3216:	89 2e       	mov	r8, r25
    3218:	1e 01       	movw	r2, r28
    321a:	08 94       	sec
    321c:	21 1c       	adc	r2, r1
    321e:	31 1c       	adc	r3, r1
    3220:	f3 01       	movw	r30, r6
    3222:	23 81       	ldd	r18, Z+3	; 0x03
    3224:	f2 01       	movw	r30, r4
    3226:	23 fd       	sbrc	r18, 3
    3228:	85 91       	lpm	r24, Z+
    322a:	23 ff       	sbrs	r18, 3
    322c:	81 91       	ld	r24, Z+
    322e:	2f 01       	movw	r4, r30
    3230:	88 23       	and	r24, r24
    3232:	09 f4       	brne	.+2      	; 0x3236 <vfprintf+0x46>
    3234:	b2 c1       	rjmp	.+868    	; 0x359a <vfprintf+0x3aa>
    3236:	85 32       	cpi	r24, 0x25	; 37
    3238:	39 f4       	brne	.+14     	; 0x3248 <vfprintf+0x58>
    323a:	23 fd       	sbrc	r18, 3
    323c:	85 91       	lpm	r24, Z+
    323e:	23 ff       	sbrs	r18, 3
    3240:	81 91       	ld	r24, Z+
    3242:	2f 01       	movw	r4, r30
    3244:	85 32       	cpi	r24, 0x25	; 37
    3246:	29 f4       	brne	.+10     	; 0x3252 <vfprintf+0x62>
    3248:	90 e0       	ldi	r25, 0x00	; 0
    324a:	b3 01       	movw	r22, r6
    324c:	0e 94 eb 1a 	call	0x35d6	; 0x35d6 <fputc>
    3250:	e7 cf       	rjmp	.-50     	; 0x3220 <vfprintf+0x30>
    3252:	98 2f       	mov	r25, r24
    3254:	ff 24       	eor	r15, r15
    3256:	ee 24       	eor	r14, r14
    3258:	99 24       	eor	r9, r9
    325a:	ff e1       	ldi	r31, 0x1F	; 31
    325c:	ff 15       	cp	r31, r15
    325e:	d0 f0       	brcs	.+52     	; 0x3294 <vfprintf+0xa4>
    3260:	9b 32       	cpi	r25, 0x2B	; 43
    3262:	69 f0       	breq	.+26     	; 0x327e <vfprintf+0x8e>
    3264:	9c 32       	cpi	r25, 0x2C	; 44
    3266:	28 f4       	brcc	.+10     	; 0x3272 <vfprintf+0x82>
    3268:	90 32       	cpi	r25, 0x20	; 32
    326a:	59 f0       	breq	.+22     	; 0x3282 <vfprintf+0x92>
    326c:	93 32       	cpi	r25, 0x23	; 35
    326e:	91 f4       	brne	.+36     	; 0x3294 <vfprintf+0xa4>
    3270:	0e c0       	rjmp	.+28     	; 0x328e <vfprintf+0x9e>
    3272:	9d 32       	cpi	r25, 0x2D	; 45
    3274:	49 f0       	breq	.+18     	; 0x3288 <vfprintf+0x98>
    3276:	90 33       	cpi	r25, 0x30	; 48
    3278:	69 f4       	brne	.+26     	; 0x3294 <vfprintf+0xa4>
    327a:	41 e0       	ldi	r20, 0x01	; 1
    327c:	24 c0       	rjmp	.+72     	; 0x32c6 <vfprintf+0xd6>
    327e:	52 e0       	ldi	r21, 0x02	; 2
    3280:	f5 2a       	or	r15, r21
    3282:	84 e0       	ldi	r24, 0x04	; 4
    3284:	f8 2a       	or	r15, r24
    3286:	28 c0       	rjmp	.+80     	; 0x32d8 <vfprintf+0xe8>
    3288:	98 e0       	ldi	r25, 0x08	; 8
    328a:	f9 2a       	or	r15, r25
    328c:	25 c0       	rjmp	.+74     	; 0x32d8 <vfprintf+0xe8>
    328e:	e0 e1       	ldi	r30, 0x10	; 16
    3290:	fe 2a       	or	r15, r30
    3292:	22 c0       	rjmp	.+68     	; 0x32d8 <vfprintf+0xe8>
    3294:	f7 fc       	sbrc	r15, 7
    3296:	29 c0       	rjmp	.+82     	; 0x32ea <vfprintf+0xfa>
    3298:	89 2f       	mov	r24, r25
    329a:	80 53       	subi	r24, 0x30	; 48
    329c:	8a 30       	cpi	r24, 0x0A	; 10
    329e:	70 f4       	brcc	.+28     	; 0x32bc <vfprintf+0xcc>
    32a0:	f6 fe       	sbrs	r15, 6
    32a2:	05 c0       	rjmp	.+10     	; 0x32ae <vfprintf+0xbe>
    32a4:	98 9c       	mul	r9, r8
    32a6:	90 2c       	mov	r9, r0
    32a8:	11 24       	eor	r1, r1
    32aa:	98 0e       	add	r9, r24
    32ac:	15 c0       	rjmp	.+42     	; 0x32d8 <vfprintf+0xe8>
    32ae:	e8 9c       	mul	r14, r8
    32b0:	e0 2c       	mov	r14, r0
    32b2:	11 24       	eor	r1, r1
    32b4:	e8 0e       	add	r14, r24
    32b6:	f0 e2       	ldi	r31, 0x20	; 32
    32b8:	ff 2a       	or	r15, r31
    32ba:	0e c0       	rjmp	.+28     	; 0x32d8 <vfprintf+0xe8>
    32bc:	9e 32       	cpi	r25, 0x2E	; 46
    32be:	29 f4       	brne	.+10     	; 0x32ca <vfprintf+0xda>
    32c0:	f6 fc       	sbrc	r15, 6
    32c2:	6b c1       	rjmp	.+726    	; 0x359a <vfprintf+0x3aa>
    32c4:	40 e4       	ldi	r20, 0x40	; 64
    32c6:	f4 2a       	or	r15, r20
    32c8:	07 c0       	rjmp	.+14     	; 0x32d8 <vfprintf+0xe8>
    32ca:	9c 36       	cpi	r25, 0x6C	; 108
    32cc:	19 f4       	brne	.+6      	; 0x32d4 <vfprintf+0xe4>
    32ce:	50 e8       	ldi	r21, 0x80	; 128
    32d0:	f5 2a       	or	r15, r21
    32d2:	02 c0       	rjmp	.+4      	; 0x32d8 <vfprintf+0xe8>
    32d4:	98 36       	cpi	r25, 0x68	; 104
    32d6:	49 f4       	brne	.+18     	; 0x32ea <vfprintf+0xfa>
    32d8:	f2 01       	movw	r30, r4
    32da:	23 fd       	sbrc	r18, 3
    32dc:	95 91       	lpm	r25, Z+
    32de:	23 ff       	sbrs	r18, 3
    32e0:	91 91       	ld	r25, Z+
    32e2:	2f 01       	movw	r4, r30
    32e4:	99 23       	and	r25, r25
    32e6:	09 f0       	breq	.+2      	; 0x32ea <vfprintf+0xfa>
    32e8:	b8 cf       	rjmp	.-144    	; 0x325a <vfprintf+0x6a>
    32ea:	89 2f       	mov	r24, r25
    32ec:	85 54       	subi	r24, 0x45	; 69
    32ee:	83 30       	cpi	r24, 0x03	; 3
    32f0:	18 f0       	brcs	.+6      	; 0x32f8 <vfprintf+0x108>
    32f2:	80 52       	subi	r24, 0x20	; 32
    32f4:	83 30       	cpi	r24, 0x03	; 3
    32f6:	38 f4       	brcc	.+14     	; 0x3306 <vfprintf+0x116>
    32f8:	44 e0       	ldi	r20, 0x04	; 4
    32fa:	50 e0       	ldi	r21, 0x00	; 0
    32fc:	a4 0e       	add	r10, r20
    32fe:	b5 1e       	adc	r11, r21
    3300:	5f e3       	ldi	r21, 0x3F	; 63
    3302:	59 83       	std	Y+1, r21	; 0x01
    3304:	0f c0       	rjmp	.+30     	; 0x3324 <vfprintf+0x134>
    3306:	93 36       	cpi	r25, 0x63	; 99
    3308:	31 f0       	breq	.+12     	; 0x3316 <vfprintf+0x126>
    330a:	93 37       	cpi	r25, 0x73	; 115
    330c:	79 f0       	breq	.+30     	; 0x332c <vfprintf+0x13c>
    330e:	93 35       	cpi	r25, 0x53	; 83
    3310:	09 f0       	breq	.+2      	; 0x3314 <vfprintf+0x124>
    3312:	56 c0       	rjmp	.+172    	; 0x33c0 <vfprintf+0x1d0>
    3314:	20 c0       	rjmp	.+64     	; 0x3356 <vfprintf+0x166>
    3316:	f5 01       	movw	r30, r10
    3318:	80 81       	ld	r24, Z
    331a:	89 83       	std	Y+1, r24	; 0x01
    331c:	42 e0       	ldi	r20, 0x02	; 2
    331e:	50 e0       	ldi	r21, 0x00	; 0
    3320:	a4 0e       	add	r10, r20
    3322:	b5 1e       	adc	r11, r21
    3324:	61 01       	movw	r12, r2
    3326:	01 e0       	ldi	r16, 0x01	; 1
    3328:	10 e0       	ldi	r17, 0x00	; 0
    332a:	12 c0       	rjmp	.+36     	; 0x3350 <vfprintf+0x160>
    332c:	f5 01       	movw	r30, r10
    332e:	c0 80       	ld	r12, Z
    3330:	d1 80       	ldd	r13, Z+1	; 0x01
    3332:	f6 fc       	sbrc	r15, 6
    3334:	03 c0       	rjmp	.+6      	; 0x333c <vfprintf+0x14c>
    3336:	6f ef       	ldi	r22, 0xFF	; 255
    3338:	7f ef       	ldi	r23, 0xFF	; 255
    333a:	02 c0       	rjmp	.+4      	; 0x3340 <vfprintf+0x150>
    333c:	69 2d       	mov	r22, r9
    333e:	70 e0       	ldi	r23, 0x00	; 0
    3340:	42 e0       	ldi	r20, 0x02	; 2
    3342:	50 e0       	ldi	r21, 0x00	; 0
    3344:	a4 0e       	add	r10, r20
    3346:	b5 1e       	adc	r11, r21
    3348:	c6 01       	movw	r24, r12
    334a:	0e 94 e0 1a 	call	0x35c0	; 0x35c0 <strnlen>
    334e:	8c 01       	movw	r16, r24
    3350:	5f e7       	ldi	r21, 0x7F	; 127
    3352:	f5 22       	and	r15, r21
    3354:	14 c0       	rjmp	.+40     	; 0x337e <vfprintf+0x18e>
    3356:	f5 01       	movw	r30, r10
    3358:	c0 80       	ld	r12, Z
    335a:	d1 80       	ldd	r13, Z+1	; 0x01
    335c:	f6 fc       	sbrc	r15, 6
    335e:	03 c0       	rjmp	.+6      	; 0x3366 <vfprintf+0x176>
    3360:	6f ef       	ldi	r22, 0xFF	; 255
    3362:	7f ef       	ldi	r23, 0xFF	; 255
    3364:	02 c0       	rjmp	.+4      	; 0x336a <vfprintf+0x17a>
    3366:	69 2d       	mov	r22, r9
    3368:	70 e0       	ldi	r23, 0x00	; 0
    336a:	42 e0       	ldi	r20, 0x02	; 2
    336c:	50 e0       	ldi	r21, 0x00	; 0
    336e:	a4 0e       	add	r10, r20
    3370:	b5 1e       	adc	r11, r21
    3372:	c6 01       	movw	r24, r12
    3374:	0e 94 d5 1a 	call	0x35aa	; 0x35aa <strnlen_P>
    3378:	8c 01       	movw	r16, r24
    337a:	50 e8       	ldi	r21, 0x80	; 128
    337c:	f5 2a       	or	r15, r21
    337e:	f3 fe       	sbrs	r15, 3
    3380:	07 c0       	rjmp	.+14     	; 0x3390 <vfprintf+0x1a0>
    3382:	1a c0       	rjmp	.+52     	; 0x33b8 <vfprintf+0x1c8>
    3384:	80 e2       	ldi	r24, 0x20	; 32
    3386:	90 e0       	ldi	r25, 0x00	; 0
    3388:	b3 01       	movw	r22, r6
    338a:	0e 94 eb 1a 	call	0x35d6	; 0x35d6 <fputc>
    338e:	ea 94       	dec	r14
    3390:	8e 2d       	mov	r24, r14
    3392:	90 e0       	ldi	r25, 0x00	; 0
    3394:	08 17       	cp	r16, r24
    3396:	19 07       	cpc	r17, r25
    3398:	a8 f3       	brcs	.-22     	; 0x3384 <vfprintf+0x194>
    339a:	0e c0       	rjmp	.+28     	; 0x33b8 <vfprintf+0x1c8>
    339c:	f6 01       	movw	r30, r12
    339e:	f7 fc       	sbrc	r15, 7
    33a0:	85 91       	lpm	r24, Z+
    33a2:	f7 fe       	sbrs	r15, 7
    33a4:	81 91       	ld	r24, Z+
    33a6:	6f 01       	movw	r12, r30
    33a8:	90 e0       	ldi	r25, 0x00	; 0
    33aa:	b3 01       	movw	r22, r6
    33ac:	0e 94 eb 1a 	call	0x35d6	; 0x35d6 <fputc>
    33b0:	e1 10       	cpse	r14, r1
    33b2:	ea 94       	dec	r14
    33b4:	01 50       	subi	r16, 0x01	; 1
    33b6:	10 40       	sbci	r17, 0x00	; 0
    33b8:	01 15       	cp	r16, r1
    33ba:	11 05       	cpc	r17, r1
    33bc:	79 f7       	brne	.-34     	; 0x339c <vfprintf+0x1ac>
    33be:	ea c0       	rjmp	.+468    	; 0x3594 <vfprintf+0x3a4>
    33c0:	94 36       	cpi	r25, 0x64	; 100
    33c2:	11 f0       	breq	.+4      	; 0x33c8 <vfprintf+0x1d8>
    33c4:	99 36       	cpi	r25, 0x69	; 105
    33c6:	69 f5       	brne	.+90     	; 0x3422 <vfprintf+0x232>
    33c8:	f7 fe       	sbrs	r15, 7
    33ca:	08 c0       	rjmp	.+16     	; 0x33dc <vfprintf+0x1ec>
    33cc:	f5 01       	movw	r30, r10
    33ce:	20 81       	ld	r18, Z
    33d0:	31 81       	ldd	r19, Z+1	; 0x01
    33d2:	42 81       	ldd	r20, Z+2	; 0x02
    33d4:	53 81       	ldd	r21, Z+3	; 0x03
    33d6:	84 e0       	ldi	r24, 0x04	; 4
    33d8:	90 e0       	ldi	r25, 0x00	; 0
    33da:	0a c0       	rjmp	.+20     	; 0x33f0 <vfprintf+0x200>
    33dc:	f5 01       	movw	r30, r10
    33de:	80 81       	ld	r24, Z
    33e0:	91 81       	ldd	r25, Z+1	; 0x01
    33e2:	9c 01       	movw	r18, r24
    33e4:	44 27       	eor	r20, r20
    33e6:	37 fd       	sbrc	r19, 7
    33e8:	40 95       	com	r20
    33ea:	54 2f       	mov	r21, r20
    33ec:	82 e0       	ldi	r24, 0x02	; 2
    33ee:	90 e0       	ldi	r25, 0x00	; 0
    33f0:	a8 0e       	add	r10, r24
    33f2:	b9 1e       	adc	r11, r25
    33f4:	9f e6       	ldi	r25, 0x6F	; 111
    33f6:	f9 22       	and	r15, r25
    33f8:	57 ff       	sbrs	r21, 7
    33fa:	09 c0       	rjmp	.+18     	; 0x340e <vfprintf+0x21e>
    33fc:	50 95       	com	r21
    33fe:	40 95       	com	r20
    3400:	30 95       	com	r19
    3402:	21 95       	neg	r18
    3404:	3f 4f       	sbci	r19, 0xFF	; 255
    3406:	4f 4f       	sbci	r20, 0xFF	; 255
    3408:	5f 4f       	sbci	r21, 0xFF	; 255
    340a:	e0 e8       	ldi	r30, 0x80	; 128
    340c:	fe 2a       	or	r15, r30
    340e:	ca 01       	movw	r24, r20
    3410:	b9 01       	movw	r22, r18
    3412:	a1 01       	movw	r20, r2
    3414:	2a e0       	ldi	r18, 0x0A	; 10
    3416:	30 e0       	ldi	r19, 0x00	; 0
    3418:	0e 94 17 1b 	call	0x362e	; 0x362e <__ultoa_invert>
    341c:	d8 2e       	mov	r13, r24
    341e:	d2 18       	sub	r13, r2
    3420:	40 c0       	rjmp	.+128    	; 0x34a2 <vfprintf+0x2b2>
    3422:	95 37       	cpi	r25, 0x75	; 117
    3424:	29 f4       	brne	.+10     	; 0x3430 <vfprintf+0x240>
    3426:	1f 2d       	mov	r17, r15
    3428:	1f 7e       	andi	r17, 0xEF	; 239
    342a:	2a e0       	ldi	r18, 0x0A	; 10
    342c:	30 e0       	ldi	r19, 0x00	; 0
    342e:	1d c0       	rjmp	.+58     	; 0x346a <vfprintf+0x27a>
    3430:	1f 2d       	mov	r17, r15
    3432:	19 7f       	andi	r17, 0xF9	; 249
    3434:	9f 36       	cpi	r25, 0x6F	; 111
    3436:	61 f0       	breq	.+24     	; 0x3450 <vfprintf+0x260>
    3438:	90 37       	cpi	r25, 0x70	; 112
    343a:	20 f4       	brcc	.+8      	; 0x3444 <vfprintf+0x254>
    343c:	98 35       	cpi	r25, 0x58	; 88
    343e:	09 f0       	breq	.+2      	; 0x3442 <vfprintf+0x252>
    3440:	ac c0       	rjmp	.+344    	; 0x359a <vfprintf+0x3aa>
    3442:	0f c0       	rjmp	.+30     	; 0x3462 <vfprintf+0x272>
    3444:	90 37       	cpi	r25, 0x70	; 112
    3446:	39 f0       	breq	.+14     	; 0x3456 <vfprintf+0x266>
    3448:	98 37       	cpi	r25, 0x78	; 120
    344a:	09 f0       	breq	.+2      	; 0x344e <vfprintf+0x25e>
    344c:	a6 c0       	rjmp	.+332    	; 0x359a <vfprintf+0x3aa>
    344e:	04 c0       	rjmp	.+8      	; 0x3458 <vfprintf+0x268>
    3450:	28 e0       	ldi	r18, 0x08	; 8
    3452:	30 e0       	ldi	r19, 0x00	; 0
    3454:	0a c0       	rjmp	.+20     	; 0x346a <vfprintf+0x27a>
    3456:	10 61       	ori	r17, 0x10	; 16
    3458:	14 fd       	sbrc	r17, 4
    345a:	14 60       	ori	r17, 0x04	; 4
    345c:	20 e1       	ldi	r18, 0x10	; 16
    345e:	30 e0       	ldi	r19, 0x00	; 0
    3460:	04 c0       	rjmp	.+8      	; 0x346a <vfprintf+0x27a>
    3462:	14 fd       	sbrc	r17, 4
    3464:	16 60       	ori	r17, 0x06	; 6
    3466:	20 e1       	ldi	r18, 0x10	; 16
    3468:	32 e0       	ldi	r19, 0x02	; 2
    346a:	17 ff       	sbrs	r17, 7
    346c:	08 c0       	rjmp	.+16     	; 0x347e <vfprintf+0x28e>
    346e:	f5 01       	movw	r30, r10
    3470:	60 81       	ld	r22, Z
    3472:	71 81       	ldd	r23, Z+1	; 0x01
    3474:	82 81       	ldd	r24, Z+2	; 0x02
    3476:	93 81       	ldd	r25, Z+3	; 0x03
    3478:	44 e0       	ldi	r20, 0x04	; 4
    347a:	50 e0       	ldi	r21, 0x00	; 0
    347c:	08 c0       	rjmp	.+16     	; 0x348e <vfprintf+0x29e>
    347e:	f5 01       	movw	r30, r10
    3480:	80 81       	ld	r24, Z
    3482:	91 81       	ldd	r25, Z+1	; 0x01
    3484:	bc 01       	movw	r22, r24
    3486:	80 e0       	ldi	r24, 0x00	; 0
    3488:	90 e0       	ldi	r25, 0x00	; 0
    348a:	42 e0       	ldi	r20, 0x02	; 2
    348c:	50 e0       	ldi	r21, 0x00	; 0
    348e:	a4 0e       	add	r10, r20
    3490:	b5 1e       	adc	r11, r21
    3492:	a1 01       	movw	r20, r2
    3494:	0e 94 17 1b 	call	0x362e	; 0x362e <__ultoa_invert>
    3498:	d8 2e       	mov	r13, r24
    349a:	d2 18       	sub	r13, r2
    349c:	8f e7       	ldi	r24, 0x7F	; 127
    349e:	f8 2e       	mov	r15, r24
    34a0:	f1 22       	and	r15, r17
    34a2:	f6 fe       	sbrs	r15, 6
    34a4:	0b c0       	rjmp	.+22     	; 0x34bc <vfprintf+0x2cc>
    34a6:	5e ef       	ldi	r21, 0xFE	; 254
    34a8:	f5 22       	and	r15, r21
    34aa:	d9 14       	cp	r13, r9
    34ac:	38 f4       	brcc	.+14     	; 0x34bc <vfprintf+0x2cc>
    34ae:	f4 fe       	sbrs	r15, 4
    34b0:	07 c0       	rjmp	.+14     	; 0x34c0 <vfprintf+0x2d0>
    34b2:	f2 fc       	sbrc	r15, 2
    34b4:	05 c0       	rjmp	.+10     	; 0x34c0 <vfprintf+0x2d0>
    34b6:	8f ee       	ldi	r24, 0xEF	; 239
    34b8:	f8 22       	and	r15, r24
    34ba:	02 c0       	rjmp	.+4      	; 0x34c0 <vfprintf+0x2d0>
    34bc:	1d 2d       	mov	r17, r13
    34be:	01 c0       	rjmp	.+2      	; 0x34c2 <vfprintf+0x2d2>
    34c0:	19 2d       	mov	r17, r9
    34c2:	f4 fe       	sbrs	r15, 4
    34c4:	0d c0       	rjmp	.+26     	; 0x34e0 <vfprintf+0x2f0>
    34c6:	fe 01       	movw	r30, r28
    34c8:	ed 0d       	add	r30, r13
    34ca:	f1 1d       	adc	r31, r1
    34cc:	80 81       	ld	r24, Z
    34ce:	80 33       	cpi	r24, 0x30	; 48
    34d0:	19 f4       	brne	.+6      	; 0x34d8 <vfprintf+0x2e8>
    34d2:	99 ee       	ldi	r25, 0xE9	; 233
    34d4:	f9 22       	and	r15, r25
    34d6:	08 c0       	rjmp	.+16     	; 0x34e8 <vfprintf+0x2f8>
    34d8:	1f 5f       	subi	r17, 0xFF	; 255
    34da:	f2 fe       	sbrs	r15, 2
    34dc:	05 c0       	rjmp	.+10     	; 0x34e8 <vfprintf+0x2f8>
    34de:	03 c0       	rjmp	.+6      	; 0x34e6 <vfprintf+0x2f6>
    34e0:	8f 2d       	mov	r24, r15
    34e2:	86 78       	andi	r24, 0x86	; 134
    34e4:	09 f0       	breq	.+2      	; 0x34e8 <vfprintf+0x2f8>
    34e6:	1f 5f       	subi	r17, 0xFF	; 255
    34e8:	0f 2d       	mov	r16, r15
    34ea:	f3 fc       	sbrc	r15, 3
    34ec:	14 c0       	rjmp	.+40     	; 0x3516 <vfprintf+0x326>
    34ee:	f0 fe       	sbrs	r15, 0
    34f0:	0f c0       	rjmp	.+30     	; 0x3510 <vfprintf+0x320>
    34f2:	1e 15       	cp	r17, r14
    34f4:	10 f0       	brcs	.+4      	; 0x34fa <vfprintf+0x30a>
    34f6:	9d 2c       	mov	r9, r13
    34f8:	0b c0       	rjmp	.+22     	; 0x3510 <vfprintf+0x320>
    34fa:	9d 2c       	mov	r9, r13
    34fc:	9e 0c       	add	r9, r14
    34fe:	91 1a       	sub	r9, r17
    3500:	1e 2d       	mov	r17, r14
    3502:	06 c0       	rjmp	.+12     	; 0x3510 <vfprintf+0x320>
    3504:	80 e2       	ldi	r24, 0x20	; 32
    3506:	90 e0       	ldi	r25, 0x00	; 0
    3508:	b3 01       	movw	r22, r6
    350a:	0e 94 eb 1a 	call	0x35d6	; 0x35d6 <fputc>
    350e:	1f 5f       	subi	r17, 0xFF	; 255
    3510:	1e 15       	cp	r17, r14
    3512:	c0 f3       	brcs	.-16     	; 0x3504 <vfprintf+0x314>
    3514:	04 c0       	rjmp	.+8      	; 0x351e <vfprintf+0x32e>
    3516:	1e 15       	cp	r17, r14
    3518:	10 f4       	brcc	.+4      	; 0x351e <vfprintf+0x32e>
    351a:	e1 1a       	sub	r14, r17
    351c:	01 c0       	rjmp	.+2      	; 0x3520 <vfprintf+0x330>
    351e:	ee 24       	eor	r14, r14
    3520:	04 ff       	sbrs	r16, 4
    3522:	0f c0       	rjmp	.+30     	; 0x3542 <vfprintf+0x352>
    3524:	80 e3       	ldi	r24, 0x30	; 48
    3526:	90 e0       	ldi	r25, 0x00	; 0
    3528:	b3 01       	movw	r22, r6
    352a:	0e 94 eb 1a 	call	0x35d6	; 0x35d6 <fputc>
    352e:	02 ff       	sbrs	r16, 2
    3530:	1d c0       	rjmp	.+58     	; 0x356c <vfprintf+0x37c>
    3532:	01 fd       	sbrc	r16, 1
    3534:	03 c0       	rjmp	.+6      	; 0x353c <vfprintf+0x34c>
    3536:	88 e7       	ldi	r24, 0x78	; 120
    3538:	90 e0       	ldi	r25, 0x00	; 0
    353a:	0e c0       	rjmp	.+28     	; 0x3558 <vfprintf+0x368>
    353c:	88 e5       	ldi	r24, 0x58	; 88
    353e:	90 e0       	ldi	r25, 0x00	; 0
    3540:	0b c0       	rjmp	.+22     	; 0x3558 <vfprintf+0x368>
    3542:	80 2f       	mov	r24, r16
    3544:	86 78       	andi	r24, 0x86	; 134
    3546:	91 f0       	breq	.+36     	; 0x356c <vfprintf+0x37c>
    3548:	01 ff       	sbrs	r16, 1
    354a:	02 c0       	rjmp	.+4      	; 0x3550 <vfprintf+0x360>
    354c:	8b e2       	ldi	r24, 0x2B	; 43
    354e:	01 c0       	rjmp	.+2      	; 0x3552 <vfprintf+0x362>
    3550:	80 e2       	ldi	r24, 0x20	; 32
    3552:	f7 fc       	sbrc	r15, 7
    3554:	8d e2       	ldi	r24, 0x2D	; 45
    3556:	90 e0       	ldi	r25, 0x00	; 0
    3558:	b3 01       	movw	r22, r6
    355a:	0e 94 eb 1a 	call	0x35d6	; 0x35d6 <fputc>
    355e:	06 c0       	rjmp	.+12     	; 0x356c <vfprintf+0x37c>
    3560:	80 e3       	ldi	r24, 0x30	; 48
    3562:	90 e0       	ldi	r25, 0x00	; 0
    3564:	b3 01       	movw	r22, r6
    3566:	0e 94 eb 1a 	call	0x35d6	; 0x35d6 <fputc>
    356a:	9a 94       	dec	r9
    356c:	d9 14       	cp	r13, r9
    356e:	c0 f3       	brcs	.-16     	; 0x3560 <vfprintf+0x370>
    3570:	da 94       	dec	r13
    3572:	f1 01       	movw	r30, r2
    3574:	ed 0d       	add	r30, r13
    3576:	f1 1d       	adc	r31, r1
    3578:	80 81       	ld	r24, Z
    357a:	90 e0       	ldi	r25, 0x00	; 0
    357c:	b3 01       	movw	r22, r6
    357e:	0e 94 eb 1a 	call	0x35d6	; 0x35d6 <fputc>
    3582:	dd 20       	and	r13, r13
    3584:	a9 f7       	brne	.-22     	; 0x3570 <vfprintf+0x380>
    3586:	06 c0       	rjmp	.+12     	; 0x3594 <vfprintf+0x3a4>
    3588:	80 e2       	ldi	r24, 0x20	; 32
    358a:	90 e0       	ldi	r25, 0x00	; 0
    358c:	b3 01       	movw	r22, r6
    358e:	0e 94 eb 1a 	call	0x35d6	; 0x35d6 <fputc>
    3592:	ea 94       	dec	r14
    3594:	ee 20       	and	r14, r14
    3596:	c1 f7       	brne	.-16     	; 0x3588 <vfprintf+0x398>
    3598:	43 ce       	rjmp	.-890    	; 0x3220 <vfprintf+0x30>
    359a:	f3 01       	movw	r30, r6
    359c:	66 81       	ldd	r22, Z+6	; 0x06
    359e:	77 81       	ldd	r23, Z+7	; 0x07
    35a0:	cb 01       	movw	r24, r22
    35a2:	2b 96       	adiw	r28, 0x0b	; 11
    35a4:	e2 e1       	ldi	r30, 0x12	; 18
    35a6:	0c 94 b9 18 	jmp	0x3172	; 0x3172 <__epilogue_restores__>

000035aa <strnlen_P>:
    35aa:	fc 01       	movw	r30, r24
    35ac:	05 90       	lpm	r0, Z+
    35ae:	61 50       	subi	r22, 0x01	; 1
    35b0:	70 40       	sbci	r23, 0x00	; 0
    35b2:	01 10       	cpse	r0, r1
    35b4:	d8 f7       	brcc	.-10     	; 0x35ac <strnlen_P+0x2>
    35b6:	80 95       	com	r24
    35b8:	90 95       	com	r25
    35ba:	8e 0f       	add	r24, r30
    35bc:	9f 1f       	adc	r25, r31
    35be:	08 95       	ret

000035c0 <strnlen>:
    35c0:	fc 01       	movw	r30, r24
    35c2:	61 50       	subi	r22, 0x01	; 1
    35c4:	70 40       	sbci	r23, 0x00	; 0
    35c6:	01 90       	ld	r0, Z+
    35c8:	01 10       	cpse	r0, r1
    35ca:	d8 f7       	brcc	.-10     	; 0x35c2 <strnlen+0x2>
    35cc:	80 95       	com	r24
    35ce:	90 95       	com	r25
    35d0:	8e 0f       	add	r24, r30
    35d2:	9f 1f       	adc	r25, r31
    35d4:	08 95       	ret

000035d6 <fputc>:
    35d6:	0f 93       	push	r16
    35d8:	1f 93       	push	r17
    35da:	cf 93       	push	r28
    35dc:	df 93       	push	r29
    35de:	8c 01       	movw	r16, r24
    35e0:	eb 01       	movw	r28, r22
    35e2:	8b 81       	ldd	r24, Y+3	; 0x03
    35e4:	81 ff       	sbrs	r24, 1
    35e6:	1b c0       	rjmp	.+54     	; 0x361e <fputc+0x48>
    35e8:	82 ff       	sbrs	r24, 2
    35ea:	0d c0       	rjmp	.+26     	; 0x3606 <fputc+0x30>
    35ec:	2e 81       	ldd	r18, Y+6	; 0x06
    35ee:	3f 81       	ldd	r19, Y+7	; 0x07
    35f0:	8c 81       	ldd	r24, Y+4	; 0x04
    35f2:	9d 81       	ldd	r25, Y+5	; 0x05
    35f4:	28 17       	cp	r18, r24
    35f6:	39 07       	cpc	r19, r25
    35f8:	64 f4       	brge	.+24     	; 0x3612 <fputc+0x3c>
    35fa:	e8 81       	ld	r30, Y
    35fc:	f9 81       	ldd	r31, Y+1	; 0x01
    35fe:	01 93       	st	Z+, r16
    3600:	f9 83       	std	Y+1, r31	; 0x01
    3602:	e8 83       	st	Y, r30
    3604:	06 c0       	rjmp	.+12     	; 0x3612 <fputc+0x3c>
    3606:	e8 85       	ldd	r30, Y+8	; 0x08
    3608:	f9 85       	ldd	r31, Y+9	; 0x09
    360a:	80 2f       	mov	r24, r16
    360c:	09 95       	icall
    360e:	89 2b       	or	r24, r25
    3610:	31 f4       	brne	.+12     	; 0x361e <fputc+0x48>
    3612:	8e 81       	ldd	r24, Y+6	; 0x06
    3614:	9f 81       	ldd	r25, Y+7	; 0x07
    3616:	01 96       	adiw	r24, 0x01	; 1
    3618:	9f 83       	std	Y+7, r25	; 0x07
    361a:	8e 83       	std	Y+6, r24	; 0x06
    361c:	02 c0       	rjmp	.+4      	; 0x3622 <fputc+0x4c>
    361e:	0f ef       	ldi	r16, 0xFF	; 255
    3620:	1f ef       	ldi	r17, 0xFF	; 255
    3622:	c8 01       	movw	r24, r16
    3624:	df 91       	pop	r29
    3626:	cf 91       	pop	r28
    3628:	1f 91       	pop	r17
    362a:	0f 91       	pop	r16
    362c:	08 95       	ret

0000362e <__ultoa_invert>:
    362e:	fa 01       	movw	r30, r20
    3630:	aa 27       	eor	r26, r26
    3632:	28 30       	cpi	r18, 0x08	; 8
    3634:	51 f1       	breq	.+84     	; 0x368a <__ultoa_invert+0x5c>
    3636:	20 31       	cpi	r18, 0x10	; 16
    3638:	81 f1       	breq	.+96     	; 0x369a <__ultoa_invert+0x6c>
    363a:	e8 94       	clt
    363c:	6f 93       	push	r22
    363e:	6e 7f       	andi	r22, 0xFE	; 254
    3640:	6e 5f       	subi	r22, 0xFE	; 254
    3642:	7f 4f       	sbci	r23, 0xFF	; 255
    3644:	8f 4f       	sbci	r24, 0xFF	; 255
    3646:	9f 4f       	sbci	r25, 0xFF	; 255
    3648:	af 4f       	sbci	r26, 0xFF	; 255
    364a:	b1 e0       	ldi	r27, 0x01	; 1
    364c:	3e d0       	rcall	.+124    	; 0x36ca <__ultoa_invert+0x9c>
    364e:	b4 e0       	ldi	r27, 0x04	; 4
    3650:	3c d0       	rcall	.+120    	; 0x36ca <__ultoa_invert+0x9c>
    3652:	67 0f       	add	r22, r23
    3654:	78 1f       	adc	r23, r24
    3656:	89 1f       	adc	r24, r25
    3658:	9a 1f       	adc	r25, r26
    365a:	a1 1d       	adc	r26, r1
    365c:	68 0f       	add	r22, r24
    365e:	79 1f       	adc	r23, r25
    3660:	8a 1f       	adc	r24, r26
    3662:	91 1d       	adc	r25, r1
    3664:	a1 1d       	adc	r26, r1
    3666:	6a 0f       	add	r22, r26
    3668:	71 1d       	adc	r23, r1
    366a:	81 1d       	adc	r24, r1
    366c:	91 1d       	adc	r25, r1
    366e:	a1 1d       	adc	r26, r1
    3670:	20 d0       	rcall	.+64     	; 0x36b2 <__ultoa_invert+0x84>
    3672:	09 f4       	brne	.+2      	; 0x3676 <__ultoa_invert+0x48>
    3674:	68 94       	set
    3676:	3f 91       	pop	r19
    3678:	2a e0       	ldi	r18, 0x0A	; 10
    367a:	26 9f       	mul	r18, r22
    367c:	11 24       	eor	r1, r1
    367e:	30 19       	sub	r19, r0
    3680:	30 5d       	subi	r19, 0xD0	; 208
    3682:	31 93       	st	Z+, r19
    3684:	de f6       	brtc	.-74     	; 0x363c <__ultoa_invert+0xe>
    3686:	cf 01       	movw	r24, r30
    3688:	08 95       	ret
    368a:	46 2f       	mov	r20, r22
    368c:	47 70       	andi	r20, 0x07	; 7
    368e:	40 5d       	subi	r20, 0xD0	; 208
    3690:	41 93       	st	Z+, r20
    3692:	b3 e0       	ldi	r27, 0x03	; 3
    3694:	0f d0       	rcall	.+30     	; 0x36b4 <__ultoa_invert+0x86>
    3696:	c9 f7       	brne	.-14     	; 0x368a <__ultoa_invert+0x5c>
    3698:	f6 cf       	rjmp	.-20     	; 0x3686 <__ultoa_invert+0x58>
    369a:	46 2f       	mov	r20, r22
    369c:	4f 70       	andi	r20, 0x0F	; 15
    369e:	40 5d       	subi	r20, 0xD0	; 208
    36a0:	4a 33       	cpi	r20, 0x3A	; 58
    36a2:	18 f0       	brcs	.+6      	; 0x36aa <__ultoa_invert+0x7c>
    36a4:	49 5d       	subi	r20, 0xD9	; 217
    36a6:	31 fd       	sbrc	r19, 1
    36a8:	40 52       	subi	r20, 0x20	; 32
    36aa:	41 93       	st	Z+, r20
    36ac:	02 d0       	rcall	.+4      	; 0x36b2 <__ultoa_invert+0x84>
    36ae:	a9 f7       	brne	.-22     	; 0x369a <__ultoa_invert+0x6c>
    36b0:	ea cf       	rjmp	.-44     	; 0x3686 <__ultoa_invert+0x58>
    36b2:	b4 e0       	ldi	r27, 0x04	; 4
    36b4:	a6 95       	lsr	r26
    36b6:	97 95       	ror	r25
    36b8:	87 95       	ror	r24
    36ba:	77 95       	ror	r23
    36bc:	67 95       	ror	r22
    36be:	ba 95       	dec	r27
    36c0:	c9 f7       	brne	.-14     	; 0x36b4 <__ultoa_invert+0x86>
    36c2:	00 97       	sbiw	r24, 0x00	; 0
    36c4:	61 05       	cpc	r22, r1
    36c6:	71 05       	cpc	r23, r1
    36c8:	08 95       	ret
    36ca:	9b 01       	movw	r18, r22
    36cc:	ac 01       	movw	r20, r24
    36ce:	0a 2e       	mov	r0, r26
    36d0:	06 94       	lsr	r0
    36d2:	57 95       	ror	r21
    36d4:	47 95       	ror	r20
    36d6:	37 95       	ror	r19
    36d8:	27 95       	ror	r18
    36da:	ba 95       	dec	r27
    36dc:	c9 f7       	brne	.-14     	; 0x36d0 <__ultoa_invert+0xa2>
    36de:	62 0f       	add	r22, r18
    36e0:	73 1f       	adc	r23, r19
    36e2:	84 1f       	adc	r24, r20
    36e4:	95 1f       	adc	r25, r21
    36e6:	a0 1d       	adc	r26, r0
    36e8:	08 95       	ret

000036ea <_exit>:
    36ea:	f8 94       	cli

000036ec <__stop_program>:
    36ec:	ff cf       	rjmp	.-2      	; 0x36ec <__stop_program>
